Certificate:
    Data:
        Version: 3 (0x2)
        Serial Number: 0 (0x0)
        Signature Algorithm: sha256WithRSAEncryption
        Issuer: C=US, ST=California, O=M2Crypto, CN=Heikki Toivonen
        Validity
            Not Before: Oct  9 07:40:19 2019 GMT
            Not After : Dec 31 07:40:22 2049 GMT
        Subject: C=US, ST=California, O=M2Crypto, CN=Heikki Toivonen
        Subject Public Key Info:
            Public Key Algorithm: rsaEncryption
                RSA Public-Key: (2048 bit)
                Modulus:
                    00:b8:14:c3:7e:10:d4:0e:55:5e:8c:5c:14:07:14:
                    da:a6:32:d4:35:37:23:7c:27:bd:29:69:4a:dd:ee:
                    a7:9f:f3:7f:1b:f4:73:3d:0b:89:6a:a1:f7:35:ac:
                    b0:20:42:b8:e6:f5:36:9f:83:d9:d6:d0:45:b9:60:
                    0c:a9:dd:f6:28:b9:c4:b7:02:ee:63:cc:ba:3a:70:
                    0c:34:75:46:9d:f1:7b:d5:5f:46:17:84:94:fc:00:
                    f6:21:c3:e2:cd:6c:d1:33:bf:d9:c2:1c:5f:c8:af:
                    91:20:0b:ed:c9:68:44:00:45:ec:9e:82:5a:62:c2:
                    a7:53:de:58:db:7d:d5:2c:9e:8f:7c:15:b4:34:30:
                    ab:b7:3d:ed:72:a2:5c:4a:51:d1:85:33:ad:e0:23:
                    e9:12:02:b9:64:0b:d8:de:61:f8:d9:18:4e:43:32:
                    73:d0:f2:df:c6:de:28:cf:f5:48:7e:46:7c:85:c6:
                    1e:96:a2:32:b8:16:ff:96:71:81:a7:d1:87:d2:d9:
                    0e:b8:9f:ad:45:14:a1:d3:b9:52:c8:59:63:77:17:
                    fe:22:ac:f9:c1:97:12:97:98:99:ae:ac:48:1b:97:
                    83:fa:88:e0:63:9b:bc:55:ea:e0:c7:ec:55:28:e9:
                    28:2a:b4:be:08:e1:50:43:4e:41:df:10:b7:98:1e:
                    dd:37
                Exponent: 65537 (0x10001)
        X509v3 extensions:
            X509v3 Basic Constraints: 
                CA:TRUE
            X509v3 Subject Key Identifier: 
                49:6E:7E:9B:16:48:9F:E9:B8:A7:DC:7C:0E:73:F6:26:2A:9C:9D:7C
    Signature Algorithm: sha256WithRSAEncryption
         79:9b:15:c5:45:3e:f1:8a:15:bb:26:38:13:c1:10:bd:88:04:
         77:40:0e:05:75:0a:21:4f:7e:cb:6a:0d:a3:10:a9:de:a5:c3:
         f1:dc:15:d6:a7:c6:61:28:94:9f:0e:5b:fc:22:53:9a:92:f2:
         a2:cd:4d:fa:29:c6:c6:1f:e9:85:c2:37:60:1f:7f:eb:68:09:
         88:0b:d3:30:38:25:76:c0:58:33:33:45:8c:82:9a:55:44:53:
         92:14:07:48:0a:df:5c:0c:d2:79:dc:7b:51:1f:44:42:c1:4d:
         96:0f:a3:18:83:bf:db:31:a8:b2:3a:53:69:96:59:d5:37:6d:
         99:5a:12:d7:cb:66:b9:a7:f4:eb:c3:5f:e6:af:e2:e5:48:f0:
         ce:89:a0:7c:fd:9e:68:4e:e7:8e:b8:47:1e:69:69:c6:fb:4e:
         8e:ea:c7:58:a6:96:b5:40:d3:52:a5:74:cd:93:8f:44:a7:8f:
         6e:79:a7:a2:ef:1e:60:3d:bb:5b:ff:14:e6:93:92:91:79:6f:
         24:56:8a:75:71:21:d1:d4:aa:f4:21:89:6c:81:1e:88:73:2f:
         e2:d9:b9:df:64:62:fa:03:74:da:6a:55:ab:c7:ef:83:ed:95:
         4e:76:57:60:56:ce:94:73:f5:3e:5a:20:5c:6f:0c:7f:77:b2:
         ae:ad:81:22
-----BEGIN CERTIFICATE-----
MIIDSDCCAjCgAwIBAgIBADANBgkqhkiG9w0BAQsFADBPMQswCQYDVQQGEwJVUzET
MBEGA1UECAwKQ2FsaWZvcm5pYTERMA8GA1UECgwITTJDcnlwdG8xGDAWBgNVBAMM
D0hlaWtraSBUb2l2b25lbjAeFw0xOTEwMDkwNzQwMTlaFw00OTEyMzEwNzQwMjJa
ME8xCzAJBgNVBAYTAlVTMRMwEQYDVQQIDApDYWxpZm9ybmlhMREwDwYDVQQKDAhN
MkNyeXB0bzEYMBYGA1UEAwwPSGVpa2tpIFRvaXZvbmVuMIIBIjANBgkqhkiG9w0B
AQEFAAOCAQ8AMIIBCgKCAQEAuBTDfhDUDlVejFwUBxTapjLUNTcjfCe9KWlK3e6n
n/N/G/RzPQuJaqH3NaywIEK45vU2n4PZ1tBFuWAMqd32KLnEtwLuY8y6OnAMNHVG
nfF71V9GF4SU/AD2IcPizWzRM7/ZwhxfyK+RIAvtyWhEAEXsnoJaYsKnU95Y233V
LJ6PfBW0NDCrtz3tcqJcSlHRhTOt4CPpEgK5ZAvY3mH42RhOQzJz0PLfxt4oz/VI
fkZ8hcYelqIyuBb/lnGBp9GH0tkOuJ+tRRSh07lSyFljdxf+Iqz5wZcSl5iZrqxI
G5eD+ojgY5u8Vergx+xVKOkoKrS+COFQQ05B3xC3mB7dNwIDAQABoy8wLTAMBgNV
HRMEBTADAQH/MB0GA1UdDgQWBBRJbn6bFkif6bin3HwOc/YmKpydfDANBgkqhkiG
9w0BAQsFAAOCAQEAeZsVxUU+8YoVuyY4E8EQvYgEd0AOBXUKIU9+y2oNoxCp3qXD
8dwV1qfGYSiUnw5b/CJTmpLyos1N+inGxh/phcI3YB9/62gJiAvTMDgldsBYMzNF
jIKaVURTkhQHSArfXAzSedx7UR9EQsFNlg+jGIO/2zGosjpTaZZZ1TdtmVoS18tm
uaf068Nf5q/i5UjwzomgfP2eaE7njrhHHmlpxvtOjurHWKaWtUDTUqV0zZOPRKeP
bnmnou8eYD27W/8U5pOSkXlvJFaKdXEh0dSq9CGJbIEeiHMv4tm532Ri+gN02mpV
q8fvg+2VTnZXYFbOlHP1PlogXG8Mf3eyrq2BIg==
-----END CERTIFICATE-----
-----BEGIN RSA PRIVATE KEY-----
MIIEpQIBAAKCAQEAuBTDfhDUDlVejFwUBxTapjLUNTcjfCe9KWlK3e6nn/N/G/Rz
PQuJaqH3NaywIEK45vU2n4PZ1tBFuWAMqd32KLnEtwLuY8y6OnAMNHVGnfF71V9G
F4SU/AD2IcPizWzRM7/ZwhxfyK+RIAvtyWhEAEXsnoJaYsKnU95Y233VLJ6PfBW0
NDCrtz3tcqJcSlHRhTOt4CPpEgK5ZAvY3mH42RhOQzJz0PLfxt4oz/VIfkZ8hcYe
lqIyuBb/lnGBp9GH0tkOuJ+tRRSh07lSyFljdxf+Iqz5wZcSl5iZrqxIG5eD+ojg
Y5u8Vergx+xVKOkoKrS+COFQQ05B3xC3mB7dNwIDAQABAoIBAQCISU8nYbwuVIQo
tO9bAtSS4eT89TK/dAh3xW3ZfBz8rmF4R/adxpHZscp+IblQWTXeQMRNO2gnw5Er
mvIlPaFHK6p5uKDYoLVsGJLgr8c1npkJM32IYe+P2AJio02iu6LzhmHpdepwgZOX
v10wlZJrBVoXTPkwT19lF6R/9NzEJ+qyceixwIUFlqKzFv+LavFL4elP03OVF5Wu
TN2DTaVJzNdpBVGdYKkJX7GhX28/gaDRZw6B2wJoJhl56uhzibNe9Lc0S9nyt+0Y
ARodv5KVTaM07z4LkFQxIliVFJmR8Bin3CHC36K9ike57srkR/BOR13Vxw9EtUHx
tNe11jy5AoGBAOVo1NHwHT7EH06F3O2MvKYJAa5rm8EU9Eq6d70ylVDKHCu2NA9V
KeeUbXxGK9Bk3RhLVevZv870AgZqtD4sUEg3qMrW3ZQHyyAlZq57AAw9GlL8REZv
aWvDE4/fmpNYVyUrpQ9KIyaZa96VZtqUJbLgzcvQsRhiwo2zQAP9UqL9AoGBAM1q
7DJtTqU1Muk5UWc8XS6HxRf0D5c1240UXP1xkRDCfI2lI3AM3sCQ5iKQP/SsOrvK
KgxQDVykdbTqD5F7QDX8BmYTdALzRm/XyqqY52WljDAwNEsdTLPewffDMRhjSBSw
sjPiHMnmXJH+0uKKUrSdvDsElBQASKQ81Ojg+ZlDAoGAS2HiJMYQ5hIN84B7Mze+
uZRWEBleCdk32OJi/DGF7REsppRtkOg8J9OXEnIAba7nE9eVeTWJGJkHnVIsvg1T
qBdaCKUIFF9nOL3xer4CKwNdBg3M5ZQwgO+OGwWvxmEN6bHowBhtan6Zen9/V628
oYXLOgDuYIP7SBKxo133bIUCgYEAj4hTrFSmbFfE0CQF1k3eimHB/R/DORQf6e89
nrYY+A39e/fU0Dmd+A4HUEVc+vjRPWBgiyPwgjhEKvqVkED/t/j2+6JCIMGeCQ5O
hW+72FGZqB42m/nIG7Ld8+KGzpSozBQ/IHOxS/5T1oupDTQ74AqLeO2VDni4SVJc
LrDslwMCgYEArxtk6NGesCUgdCTHEueubcY8VoXn/DOHi1QpqV/Fq93Fs5AkDwle
yI11+KVvXad2UAZI2LcQsN3P12Wdco0ayfHOSpOf8zv1w+/DyDkrcT10ZxgL9EDJ
eBEgQ+XmPoteMubMr6EQrzfXxzKqK/DN+2mq0s7PAFgHOr31g6feLYI=
-----END RSA PRIVATE KEY-----
