Certificate:
    Data:
        Version: 3 (0x2)
        Serial Number: 3 (0x3)
        Signature Algorithm: sha1WithRSAEncryption
        Issuer: C=US, ST=NC, L=Raleigh, O=Fedora Project, OU=fedmsg, CN=fedmsg/name=fedmsg/emailAddress=admin@fedoraproject.org
        Validity
            Not Before: Jul 15 21:18:52 2012 GMT
            Not After : Jul 13 21:18:52 2022 GMT
        Subject: C=US, ST=NC, L=Raleigh, O=Fedora Project, OU=fedmsg, CN=shell-app01.phx2.fedoraproject.org/name=shell-app01.phx2.fedoraproject.org/emailAddress=admin@fedoraproject.org
        Subject Public Key Info:
            Public Key Algorithm: rsaEncryption
                Public-Key: (1024 bit)
                Modulus:
                    00:c9:5d:32:76:f9:e8:a4:84:e6:16:cd:24:7e:99:
                    68:2a:3e:a7:5b:4f:c2:3b:3a:74:ac:3c:30:be:e5:
                    99:17:62:83:76:5d:40:79:15:b3:7e:ca:4e:40:e5:
                    88:2b:95:7e:a3:6a:b1:60:0e:ad:6a:22:b8:6c:f7:
                    f2:95:82:f5:20:62:30:95:53:fd:99:ae:73:c2:44:
                    6f:5a:47:ad:5a:31:8e:46:9e:41:ee:0e:e8:10:24:
                    0e:06:8d:e0:9d:0b:74:51:fe:53:58:04:35:e9:69:
                    f4:6c:2a:c8:41:2a:8e:59:52:92:70:af:6f:52:4f:
                    e8:a2:65:25:01:96:e4:b0:47
                Exponent: 65537 (0x10001)
        X509v3 extensions:
            X509v3 Basic Constraints: 
                CA:FALSE
            Netscape Comment: 
                Easy-RSA Generated Certificate
            X509v3 Subject Key Identifier: 
                77:71:57:05:B0:F6:25:6D:EA:72:6A:BE:E5:53:FB:19:CB:B1:1C:5E
            X509v3 Authority Key Identifier: 
                keyid:00:98:A5:D5:E7:C4:55:0E:84:A3:67:FE:66:4A:16:E0:04:15:DD:21
                DirName:/C=US/ST=NC/L=Raleigh/O=Fedora Project/OU=fedmsg/CN=fedmsg/name=fedmsg/emailAddress=admin@fedoraproject.org
                serial:8E:EB:28:D8:A9:13:9D:7C

            X509v3 Extended Key Usage: 
                TLS Web Client Authentication
            X509v3 Key Usage: 
                Digital Signature
    Signature Algorithm: sha1WithRSAEncryption
        11:b5:cc:6f:e5:cd:8c:b3:fe:98:61:44:ea:ba:9f:39:37:41:
        45:5e:34:6c:b1:15:dc:71:a0:1e:7b:8f:8c:43:8b:ad:32:cf:
        2d:b2:01:87:bd:b3:0a:a5:2f:51:a4:f6:38:c0:e3:f6:5f:fe:
        52:cf:17:13:8c:f8:d8:a7:4c:e8:7f:a3:ac:f4:6c:40:41:0a:
        e7:f0:14:a8:92:fa:e8:3f:a6:3b:08:a3:af:6f:0b:4d:c5:db:
        54:b4:a6:ab:8c:f1:b4:23:71:da:00:e6:ae:69:76:26:3f:06:
        ae:47:50:b9:a8:b3:20:3e:10:db:ba:f6:8b:d0:19:96:54:88:
        96:ff
-----BEGIN CERTIFICATE-----
MIIESTCCA7KgAwIBAgIBAzANBgkqhkiG9w0BAQUFADCBoDELMAkGA1UEBhMCVVMx
CzAJBgNVBAgTAk5DMRAwDgYDVQQHEwdSYWxlaWdoMRcwFQYDVQQKEw5GZWRvcmEg
UHJvamVjdDEPMA0GA1UECxMGZmVkbXNnMQ8wDQYDVQQDEwZmZWRtc2cxDzANBgNV
BCkTBmZlZG1zZzEmMCQGCSqGSIb3DQEJARYXYWRtaW5AZmVkb3JhcHJvamVjdC5v
cmcwHhcNMTIwNzE1MjExODUyWhcNMjIwNzEzMjExODUyWjCB2DELMAkGA1UEBhMC
VVMxCzAJBgNVBAgTAk5DMRAwDgYDVQQHEwdSYWxlaWdoMRcwFQYDVQQKEw5GZWRv
cmEgUHJvamVjdDEPMA0GA1UECxMGZmVkbXNnMSswKQYDVQQDEyJzaGVsbC1hcHAw
MS5waHgyLmZlZG9yYXByb2plY3Qub3JnMSswKQYDVQQpEyJzaGVsbC1hcHAwMS5w
aHgyLmZlZG9yYXByb2plY3Qub3JnMSYwJAYJKoZIhvcNAQkBFhdhZG1pbkBmZWRv
cmFwcm9qZWN0Lm9yZzCBnzANBgkqhkiG9w0BAQEFAAOBjQAwgYkCgYEAyV0ydvno
pITmFs0kfploKj6nW0/COzp0rDwwvuWZF2KDdl1AeRWzfspOQOWIK5V+o2qxYA6t
aiK4bPfylYL1IGIwlVP9ma5zwkRvWketWjGORp5B7g7oECQOBo3gnQt0Uf5TWAQ1
6Wn0bCrIQSqOWVKScK9vUk/oomUlAZbksEcCAwEAAaOCAVcwggFTMAkGA1UdEwQC
MAAwLQYJYIZIAYb4QgENBCAWHkVhc3ktUlNBIEdlbmVyYXRlZCBDZXJ0aWZpY2F0
ZTAdBgNVHQ4EFgQUd3FXBbD2JW3qcmq+5VP7GcuxHF4wgdUGA1UdIwSBzTCByoAU
AJil1efEVQ6Eo2f+ZkoW4AQV3SGhgaakgaMwgaAxCzAJBgNVBAYTAlVTMQswCQYD
VQQIEwJOQzEQMA4GA1UEBxMHUmFsZWlnaDEXMBUGA1UEChMORmVkb3JhIFByb2pl
Y3QxDzANBgNVBAsTBmZlZG1zZzEPMA0GA1UEAxMGZmVkbXNnMQ8wDQYDVQQpEwZm
ZWRtc2cxJjAkBgkqhkiG9w0BCQEWF2FkbWluQGZlZG9yYXByb2plY3Qub3JnggkA
juso2KkTnXwwEwYDVR0lBAwwCgYIKwYBBQUHAwIwCwYDVR0PBAQDAgeAMA0GCSqG
SIb3DQEBBQUAA4GBABG1zG/lzYyz/phhROq6nzk3QUVeNGyxFdxxoB57j4xDi60y
zy2yAYe9swqlL1Gk9jjA4/Zf/lLPFxOM+NinTOh/o6z0bEBBCufwFKiS+ug/pjsI
o69vC03F21S0pquM8bQjcdoA5q5pdiY/Bq5HULmosyA+ENu69ovQGZZUiJb/
-----END CERTIFICATE-----
