Certificate:
    Data:
        Version: 3 (0x2)
        Serial Number: 4 (0x4)
        Signature Algorithm: sha256WithRSAEncryption
        Issuer: C=US, ST=California, O=M2Crypto, CN=Heikki Toivonen
        Validity
            Not Before: Oct  7 15:12:02 2018 GMT
            Not After : Oct  4 15:12:02 2028 GMT
        Subject: C=US, ST=California, O=M2Crypto, CN=Recipient/emailAddress=recipient@example.com
        Subject Public Key Info:
            Public Key Algorithm: rsaEncryption
                RSA Public-Key: (2048 bit)
                Modulus:
                    00:cf:c6:83:2b:8c:ea:4e:10:7c:5a:c6:45:07:45:
                    f2:a6:17:55:33:f4:e8:24:df:4e:55:de:3d:0c:e6:
                    a0:a5:e0:b0:eb:bd:0e:55:2f:4e:f3:69:38:f0:31:
                    1d:0d:54:0c:39:d6:da:37:89:4c:ab:c1:9c:10:9f:
                    8d:e1:e6:c1:eb:ad:97:c0:8a:a2:4f:6f:e6:10:a0:
                    ad:f2:a0:11:4e:58:16:25:81:3a:5b:7d:6c:b4:e0:
                    76:83:f2:67:eb:17:be:44:d9:5a:38:2c:2c:b6:f5:
                    1a:d3:f5:48:85:6a:50:81:f1:74:0b:b1:22:92:cd:
                    e9:1f:fb:a3:1d:ec:03:be:1b:66:05:e9:24:4e:0a:
                    d7:7f:35:a3:92:d8:00:99:06:e9:ad:32:a0:df:7f:
                    72:d0:de:82:f8:a7:7c:d7:41:73:68:97:7e:f3:de:
                    ea:73:e6:7e:0b:d8:eb:a6:4e:eb:a2:20:e0:2e:5a:
                    8a:5e:79:b1:dd:e1:a6:64:3e:a2:7a:70:be:6a:5b:
                    65:e8:bb:a0:d0:4c:00:b3:a4:aa:2f:c3:0a:30:4d:
                    9e:d1:89:c2:c0:67:51:a0:13:a1:d3:0a:a4:db:82:
                    85:96:dd:c9:06:49:68:c7:36:e6:ba:60:2a:de:71:
                    36:5c:3b:16:a9:fe:c8:e3:91:48:6a:62:05:c1:b8:
                    11:ef
                Exponent: 65537 (0x10001)
        X509v3 extensions:
            X509v3 Basic Constraints: 
                CA:FALSE
            X509v3 Subject Key Identifier: 
                24:C1:B1:83:79:31:5E:54:5E:60:65:04:17:FB:76:D3:21:85:3B:68
    Signature Algorithm: sha256WithRSAEncryption
         11:54:e9:1d:b4:5b:36:d8:40:63:45:58:f9:e8:29:53:ff:3e:
         c9:3a:2a:89:b7:98:99:50:d4:29:96:03:e2:7e:16:1c:f7:86:
         2d:a3:92:2a:d8:60:16:d1:48:25:5d:9a:65:3e:27:16:c2:ca:
         d9:20:62:88:d7:41:7a:9e:cc:bc:d3:a6:0a:af:d4:ea:14:72:
         f1:00:13:ff:5a:a1:a1:d4:2e:89:76:98:23:28:60:1e:7f:6b:
         0c:a7:41:f6:56:d3:48:60:7a:63:9d:11:19:b7:57:60:b2:2a:
         23:a4:16:42:2f:9a:41:f3:3d:51:69:fc:30:c1:b2:34:26:89:
         c3:b6:13:19:b9:ee:10:2c:52:36:b5:89:37:4b:ae:5a:76:b0:
         ec:2c:c7:0f:8b:88:51:61:06:b7:9e:3b:df:d4:8e:2f:43:2d:
         34:79:51:5f:19:4c:21:b4:fc:db:99:c4:08:11:a1:5c:80:31:
         84:74:b5:0d:e2:3d:a4:e9:59:8d:f6:98:53:34:f1:df:18:0f:
         c8:ce:42:47:fd:7d:3a:8b:c3:65:4e:e6:a1:40:0b:8b:0b:b4:
         5c:dd:1b:d2:56:c2:52:ab:08:c1:36:e4:e9:f4:b8:63:4f:f6:
         98:20:95:07:e5:d0:b3:f7:99:b4:ed:c7:ce:6a:3b:bb:19:94:
         df:a5:ef:ce
-----BEGIN CERTIFICATE-----
MIIDZTCCAk2gAwIBAgIBBDANBgkqhkiG9w0BAQsFADBPMQswCQYDVQQGEwJVUzET
MBEGA1UECAwKQ2FsaWZvcm5pYTERMA8GA1UECgwITTJDcnlwdG8xGDAWBgNVBAMM
D0hlaWtraSBUb2l2b25lbjAeFw0xODEwMDcxNTEyMDJaFw0yODEwMDQxNTEyMDJa
MG8xCzAJBgNVBAYTAlVTMRMwEQYDVQQIDApDYWxpZm9ybmlhMREwDwYDVQQKDAhN
MkNyeXB0bzESMBAGA1UEAwwJUmVjaXBpZW50MSQwIgYJKoZIhvcNAQkBFhVyZWNp
cGllbnRAZXhhbXBsZS5jb20wggEiMA0GCSqGSIb3DQEBAQUAA4IBDwAwggEKAoIB
AQDPxoMrjOpOEHxaxkUHRfKmF1Uz9Ogk305V3j0M5qCl4LDrvQ5VL07zaTjwMR0N
VAw51to3iUyrwZwQn43h5sHrrZfAiqJPb+YQoK3yoBFOWBYlgTpbfWy04HaD8mfr
F75E2Vo4LCy29RrT9UiFalCB8XQLsSKSzekf+6Md7AO+G2YF6SROCtd/NaOS2ACZ
BumtMqDff3LQ3oL4p3zXQXNol37z3upz5n4L2OumTuuiIOAuWopeebHd4aZkPqJ6
cL5qW2Xou6DQTACzpKovwwowTZ7RicLAZ1GgE6HTCqTbgoWW3ckGSWjHNua6YCre
cTZcOxap/sjjkUhqYgXBuBHvAgMBAAGjLDAqMAkGA1UdEwQCMAAwHQYDVR0OBBYE
FCTBsYN5MV5UXmBlBBf7dtMhhTtoMA0GCSqGSIb3DQEBCwUAA4IBAQARVOkdtFs2
2EBjRVj56ClT/z7JOiqJt5iZUNQplgPifhYc94Yto5Iq2GAW0UglXZplPicWwsrZ
IGKI10F6nsy806YKr9TqFHLxABP/WqGh1C6JdpgjKGAef2sMp0H2VtNIYHpjnREZ
t1dgsiojpBZCL5pB8z1RafwwwbI0JonDthMZue4QLFI2tYk3S65adrDsLMcPi4hR
YQa3njvf1I4vQy00eVFfGUwhtPzbmcQIEaFcgDGEdLUN4j2k6VmN9phTNPHfGA/I
zkJH/X06i8NlTuahQAuLC7Rc3RvSVsJSqwjBNuTp9LhjT/aYIJUH5dCz95m07cfO
aju7GZTfpe/O
-----END CERTIFICATE-----
-----BEGIN RSA PRIVATE KEY-----
MIIEpQIBAAKCAQEAz8aDK4zqThB8WsZFB0XyphdVM/ToJN9OVd49DOagpeCw670O
VS9O82k48DEdDVQMOdbaN4lMq8GcEJ+N4ebB662XwIqiT2/mEKCt8qARTlgWJYE6
W31stOB2g/Jn6xe+RNlaOCwstvUa0/VIhWpQgfF0C7Eiks3pH/ujHewDvhtmBekk
TgrXfzWjktgAmQbprTKg339y0N6C+Kd810FzaJd+897qc+Z+C9jrpk7roiDgLlqK
Xnmx3eGmZD6ienC+altl6Lug0EwAs6SqL8MKME2e0YnCwGdRoBOh0wqk24KFlt3J
BkloxzbmumAq3nE2XDsWqf7I45FIamIFwbgR7wIDAQABAoIBAQC2CdvkrSqfyKvb
MDlMXQlyYaEBy4IUxB0y+GqOwgVgL9NyRwqmsbM/aiI7txwYEFpB1q8L11x4Y0Hk
ApbhpDak0UvSouQAKy7rxIuCtqFS/bQxmd5SSDqU4tCTXC+V9xB56+CytGlcxrSB
njayxWnR34VntQNwkb29is/oKF9DD9MAGv16B6l8sNCO5tCEKVR0YxLdrkVzWlgm
unyZqUmdN+n4YdPNYYxm5IcJHR++X+0evXiQO3sPOz8IlFgPj7NZB8DFUjQh1ToH
srwQihg2T7eusasLL7g9dv2m5yySAjmkfN1L3T8T/WIQRYu8xLaFHGpOa3NukQ6o
CurR314JAoGBAPhQYlzzTnimrmfFcOxMdpIoRtW9b0YB8u/hY/TBrCHzciO31hJS
HRJuqgHLhdu52ke8sJlWsQ3+vv4osyVBPe+vodwFJu+c1OJ5PXPp58oD8TboGgGX
qCEKh96BOZ7MZoiRs9smmKDc/5S17Qsppq3tuAqMSlDEXNbxtVZC5L0bAoGBANY0
55G10SUDfRN9govEly/zorEIy+gWW+PEKzIkeZpsIzKZTUa5F4CTX/4TSD/FZPAB
TJo4nfQdvVi1OlDQLRnjAsq7f9sWiq2MyZx0eSy5RCpSKNyft6BX6mt+M4EdssQT
/GMVU+qAprXNuC5J1dRR4CNT1g0MLa7oj7Xs6a+9AoGAfpVz31CFI0pNREdJjpxY
IZ/4pENCs1yQ/KpYq1ADsPcKq5yuu34ypc/WSL34yg9PcByHplOkRK8lrCkRUh+V
NFfDWoch1yqK97y4kBugdsJVuBjQERm/ssBMjSgxOHuYlWw5VLGzQuYGQEgRxAwC
lU3G8VGdHNlNPqHPQF8vfhsCgYEAvquY9TrCUBAq5Y5zBbaYXTahOrR5zL0aTkPv
r1KIa8yWCBQtlSZspSaJ679+MEWk8340kZKUBxfx02R95DFp9AD+GzeLN5l5F8Ka
M4n50rWW15UKilghO7kGEWjkr6mf1qlznz7802BxBKN5rrpKfBPlT4zwm+ybPXYF
dgrMeIECgYEAgbmkN4rxUEb9FFteSG0avH5CxY4iBqQSyxmi7XASgHjlkD8n9yRR
IrLlSK01XNKTtZ3ZGxWSUvLIJsfTaBDXpZGMpi53blLbXf9jUaU/DaXXS2pLNHdJ
h0qLNRt9bkQ/1tHUwhptkkI5P6U7ErkWbcB9YCg8LXm8SlgebZUJvHQ=
-----END RSA PRIVATE KEY-----
