Certificate:
    Data:
        Version: 3 (0x2)
        Serial Number: 1 (0x1)
        Signature Algorithm: sha256WithRSAEncryption
        Issuer: C=US, ST=California, O=M2Crypto, CN=Heikki Toivonen
        Validity
            Not Before: Oct  9 08:05:20 2019 GMT
            Not After : Dec 31 08:05:23 2049 GMT
        Subject: C=US, ST=California, O=M2Crypto, CN=localhost
        Subject Public Key Info:
            Public Key Algorithm: rsaEncryption
                RSA Public-Key: (2048 bit)
                Modulus:
                    00:f4:f3:38:31:09:92:0d:5d:8b:06:f0:43:e0:62:
                    62:e1:71:eb:30:ba:d7:b9:57:db:8c:10:9b:9e:1e:
                    76:45:ab:14:92:54:d4:47:34:ab:0f:95:f3:83:c5:
                    f1:45:75:58:72:0a:e1:67:77:d0:d3:7e:6a:6f:5d:
                    1a:a4:df:aa:96:c0:0f:8d:0a:95:9e:aa:e5:bc:7a:
                    6f:ab:61:41:75:31:0c:da:a6:d5:0d:b3:42:f0:20:
                    f6:2c:74:69:39:79:90:a0:c9:c2:23:ba:5a:c5:9c:
                    8f:fa:4f:06:bb:04:8e:2d:a1:36:82:c4:23:99:18:
                    1a:b7:56:0f:8a:ef:ff:57:22:51:96:ca:69:8f:a3:
                    ae:91:b7:84:02:07:be:4d:55:f2:1c:f9:11:2a:ff:
                    20:ab:0f:27:fb:79:75:6c:b2:53:e3:04:ea:4f:e5:
                    51:3f:1e:b0:b5:7f:fa:de:0f:f6:e8:e6:85:a3:17:
                    8c:b1:a6:dd:fc:e9:b8:92:d5:1c:73:d7:82:6e:60:
                    6c:10:b3:22:ca:a5:d8:c5:d2:41:93:b3:57:3f:1b:
                    cf:cf:78:4c:15:85:b1:ca:b6:84:13:1b:8f:42:ed:
                    21:bb:90:a2:b7:39:9d:68:bf:4d:da:31:06:53:98:
                    e3:de:8f:f8:3e:7d:25:f2:75:7e:d3:09:e4:eb:4d:
                    59:c9
                Exponent: 65537 (0x10001)
        X509v3 extensions:
            X509v3 Basic Constraints: 
                CA:FALSE
            X509v3 Subject Key Identifier: 
                56:FF:B6:FD:ED:A3:76:04:AA:CB:1F:25:FB:A5:8D:9D:9A:D5:85:D3
    Signature Algorithm: sha256WithRSAEncryption
         1d:6f:b2:e1:22:08:4b:9a:41:aa:6e:11:1a:c8:fb:7b:f3:5e:
         99:26:ee:cf:ec:58:5d:7e:72:18:72:87:55:d0:73:73:e3:d9:
         74:73:cf:88:70:9f:27:99:52:a2:40:2e:53:70:44:a4:61:24:
         b1:78:22:63:aa:52:2d:69:a6:91:4d:53:66:5d:e7:7e:bf:8f:
         64:97:3c:07:49:5b:ae:cb:49:89:3f:22:a6:b0:04:e8:7f:9a:
         86:1a:b8:41:b2:64:c0:18:34:0e:01:98:b5:b3:49:f0:cd:18:
         b6:c6:62:ea:42:d7:1f:75:dc:f8:46:3f:53:04:cf:e1:05:86:
         2d:c0:00:08:88:0b:fb:c4:b8:31:9d:8f:f9:8b:3c:75:ec:1c:
         37:6c:ea:fe:5f:5f:46:da:d7:38:96:ef:3a:d8:b8:44:33:d2:
         e2:bd:d5:64:19:43:37:2a:5b:6c:67:bb:63:77:4c:90:55:3b:
         a5:b8:47:67:50:56:35:0f:1b:b3:23:fe:32:7b:a9:54:d7:7a:
         e9:da:be:52:80:43:53:0b:21:7b:a9:b5:6a:4f:00:82:9e:38:
         d4:b4:14:81:a2:58:a2:ca:13:2f:7a:15:fe:01:8e:7a:f1:d5:
         c0:4b:93:0f:19:76:bc:40:e5:52:d0:42:3d:17:08:85:e7:0e:
         34:b2:2e:d1
-----BEGIN CERTIFICATE-----
MIIDPzCCAiegAwIBAgIBATANBgkqhkiG9w0BAQsFADBPMQswCQYDVQQGEwJVUzET
MBEGA1UECAwKQ2FsaWZvcm5pYTERMA8GA1UECgwITTJDcnlwdG8xGDAWBgNVBAMM
D0hlaWtraSBUb2l2b25lbjAeFw0xOTEwMDkwODA1MjBaFw00OTEyMzEwODA1MjNa
MEkxCzAJBgNVBAYTAlVTMRMwEQYDVQQIDApDYWxpZm9ybmlhMREwDwYDVQQKDAhN
MkNyeXB0bzESMBAGA1UEAwwJbG9jYWxob3N0MIIBIjANBgkqhkiG9w0BAQEFAAOC
AQ8AMIIBCgKCAQEA9PM4MQmSDV2LBvBD4GJi4XHrMLrXuVfbjBCbnh52RasUklTU
RzSrD5Xzg8XxRXVYcgrhZ3fQ035qb10apN+qlsAPjQqVnqrlvHpvq2FBdTEM2qbV
DbNC8CD2LHRpOXmQoMnCI7paxZyP+k8GuwSOLaE2gsQjmRgat1YPiu//VyJRlspp
j6OukbeEAge+TVXyHPkRKv8gqw8n+3l1bLJT4wTqT+VRPx6wtX/63g/26OaFoxeM
sabd/Om4ktUcc9eCbmBsELMiyqXYxdJBk7NXPxvPz3hMFYWxyraEExuPQu0hu5Ci
tzmdaL9N2jEGU5jj3o/4Pn0l8nV+0wnk601ZyQIDAQABoywwKjAJBgNVHRMEAjAA
MB0GA1UdDgQWBBRW/7b97aN2BKrLHyX7pY2dmtWF0zANBgkqhkiG9w0BAQsFAAOC
AQEAHW+y4SIIS5pBqm4RGsj7e/NemSbuz+xYXX5yGHKHVdBzc+PZdHPPiHCfJ5lS
okAuU3BEpGEksXgiY6pSLWmmkU1TZl3nfr+PZJc8B0lbrstJiT8iprAE6H+ahhq4
QbJkwBg0DgGYtbNJ8M0YtsZi6kLXH3Xc+EY/UwTP4QWGLcAACIgL+8S4MZ2P+Ys8
dewcN2zq/l9fRtrXOJbvOti4RDPS4r3VZBlDNypbbGe7Y3dMkFU7pbhHZ1BWNQ8b
syP+MnupVNd66dq+UoBDUwshe6m1ak8Agp441LQUgaJYosoTL3oV/gGOevHVwEuT
Dxl2vEDlUtBCPRcIhecONLIu0Q==
-----END CERTIFICATE-----
-----BEGIN RSA PRIVATE KEY-----
MIIEpAIBAAKCAQEA9PM4MQmSDV2LBvBD4GJi4XHrMLrXuVfbjBCbnh52RasUklTU
RzSrD5Xzg8XxRXVYcgrhZ3fQ035qb10apN+qlsAPjQqVnqrlvHpvq2FBdTEM2qbV
DbNC8CD2LHRpOXmQoMnCI7paxZyP+k8GuwSOLaE2gsQjmRgat1YPiu//VyJRlspp
j6OukbeEAge+TVXyHPkRKv8gqw8n+3l1bLJT4wTqT+VRPx6wtX/63g/26OaFoxeM
sabd/Om4ktUcc9eCbmBsELMiyqXYxdJBk7NXPxvPz3hMFYWxyraEExuPQu0hu5Ci
tzmdaL9N2jEGU5jj3o/4Pn0l8nV+0wnk601ZyQIDAQABAoIBAQCgFpWS9v5NXeWP
E1hJPgQB88IShwqWR6VlVTVfkekaf0Vina5fGzzxYr9UT/nvu1Gitxm51cTVdLl7
Lw5K0yNagwum0lQW7vpWxG5XQ6jUPsp33LFB0vbcma5KP4rF1X2AmFwZnaHVpQ00
OpHbiI6jo8lMjYP2epp7V/OwikoHV0873HTmuq2Y+jUvRM3o01moDtuF5mKofNEd
ft9lArRG8yjLgC5G1C9cmiATGoMGyHBRkEv+UrUWLHVxrpXviUd+/iJmhrwXcpvj
rTrZWbUkSA3i4JMml/qYqNQYeVUFVgV/slD331iIwlWP8RipXF5YqN+YGjGeqL0+
yQ4KWtABAoGBAP7XvGBUWNBSBrqioTzqYMTbwz/YjXJkvlO09wwc/UkraYlSihi0
2J1dKBePIfOk6gFbuiJNYMJvAt1hBCsN0Z6o/bH7CiOh/55nkTaL0R4zB38uuDDx
4qf6+9HT1eC9yW3UJVPwBBwI4WZmmq4peQoipBtKwpY2Q+yoUU3gp4KhAoGBAPYP
+6uv3gQYoIpkUD2ZdX8kFoaC6rJMP3Z/N75NfsOz1Tx3nNwexYM6EVVQrvTRWpLZ
rJyCgCJi9HY4lPASKSKM1cLCT/M3SdR8OiqlEjziZtSH/di6wq8/Hfqhf75nC7sK
wV7Ic0eQ3Bjg2hggPpjeBJTv8NIlCYbWbxHnsK4pAoGAY0I39vUjWpB4Wn05e/Z2
FnbaR6XbAfFHSGc1yhwIc1VbV8c0Tocxz6kXEoYHXVSgaEMH7pBg3ZpLbVp6OyK4
wKlllssGmfZhD5ubLbmri62of9r8luO/ulnBd2qg5VZGfGai21yi3SCAWlggazFw
GYiAjrjBrawZLLYqZMDZvcECgYBoi6/taWKWMPR8+FQTaBFA/M9JRXR8XuMT8Md5
Zqm2csDl2Rhfef+HWvOkYQyE3jJydGPfd58DfTHKzQ2S1tR9ZoMoJbEccGBBFKsO
FWajUbpJEKKtI+S12sZdB6Mj/dpBFTfFkrtQK98n/tkLKSAPiT0/HpceYjgi/xbf
76XkyQKBgQCkAuuTYi/9vlqYBcUH+23f0XmzQ6NNCqi0JxrnUmPv0Mc/ci7QfBZ6
BkjPxfllpAsDihfTFpfp6p1PCMpASq1J+w1yR+lnKgw9BlbBLT4SqSVVDiju0cfw
njm6zQu7IR6Ts/vi+YbVqn3yeP8U5W9as7QL5y6KeYfAhwuPqWhvog==
-----END RSA PRIVATE KEY-----
