Certificate:
    Data:
        Version: 3 (0x2)
        Serial Number: 3 (0x3)
        Signature Algorithm: sha256WithRSAEncryption
        Issuer: C=US, ST=California, O=M2Crypto, CN=Heikki Toivonen
        Validity
            Not Before: Oct  9 07:58:35 2019 GMT
            Not After : Dec 31 07:58:37 2049 GMT
        Subject: C=US, ST=California, O=M2Crypto, CN=Signer/emailAddress=signer@example.com
        Subject Public Key Info:
            Public Key Algorithm: rsaEncryption
                RSA Public-Key: (2048 bit)
                Modulus:
                    00:c8:85:86:3d:72:aa:91:d8:7b:11:02:05:92:b7:
                    1b:bf:9f:35:be:88:56:db:96:f2:70:3e:98:3c:c3:
                    62:42:ff:54:74:7a:63:e7:a9:4c:ae:52:48:a2:4f:
                    ab:c5:6b:1d:de:39:b8:f0:89:36:15:f7:70:3d:a8:
                    a6:c3:49:3e:10:d8:ae:ba:cf:1a:e6:dd:0b:d8:cd:
                    d9:00:ea:57:f2:7c:2e:6d:89:80:95:68:b1:fd:06:
                    bc:ea:ba:44:c1:fa:20:87:57:d3:ac:e5:b4:5d:ba:
                    4f:10:20:82:5b:1b:27:75:b3:0c:ce:4f:79:3f:49:
                    8e:e3:ba:14:30:cf:8a:82:11:65:59:78:7b:41:16:
                    43:e8:ea:7f:a4:60:52:46:93:53:4e:de:87:3f:50:
                    8a:56:c5:d3:04:5c:3c:a2:d3:b0:64:d8:ce:1e:75:
                    ad:ce:cd:91:b1:58:cc:2d:a6:dc:da:b5:b2:c2:0e:
                    2f:68:74:a7:a5:6e:61:4c:01:f2:d0:7d:83:66:78:
                    66:9f:b9:87:33:cc:59:dc:03:82:6f:bb:98:0c:e9:
                    10:63:12:ee:e9:05:c1:5b:98:7e:94:65:98:df:31:
                    bf:59:90:f0:1c:6c:ac:2c:1b:dd:90:71:ab:11:95:
                    8b:9c:f7:2a:2f:c0:0f:2d:b1:c8:5a:65:d6:a9:34:
                    44:81
                Exponent: 65537 (0x10001)
        X509v3 extensions:
            X509v3 Basic Constraints: 
                CA:FALSE
            X509v3 Subject Key Identifier: 
                68:03:33:27:D9:87:9A:EA:7D:41:D8:2D:EB:F9:EE:AB:C9:6A:C5:FA
    Signature Algorithm: sha256WithRSAEncryption
         0d:5e:9e:04:7d:db:b6:4a:cf:4b:2d:e5:e4:2d:fe:ea:fb:26:
         f0:1d:24:36:1c:93:d9:9c:fd:d8:78:b0:48:a8:87:d0:91:8a:
         46:3a:b4:1e:48:2c:f1:c2:1f:7c:03:a2:3f:3b:91:ad:55:1c:
         2c:42:09:19:5f:dc:be:2d:bd:e5:74:1e:2b:34:4b:8c:af:4d:
         89:b6:da:6a:eb:e3:6f:ec:40:47:1b:53:3c:e3:5a:c3:03:52:
         0c:64:96:d2:24:2f:8a:d9:e3:e9:9b:0a:10:5c:fa:10:77:c0:
         b6:eb:3a:1d:d0:76:67:55:57:71:4e:f9:91:45:14:30:74:b4:
         6d:88:48:6c:33:d1:9e:a4:a3:5e:8f:56:57:42:88:ce:30:5c:
         64:8d:d4:aa:e8:4d:47:89:bd:97:4f:43:b1:51:b4:40:41:16:
         de:d2:5d:8c:6d:83:96:18:98:d1:01:03:c7:06:44:1c:32:60:
         eb:f8:1a:ee:8a:28:5d:ae:2c:06:9f:3d:b1:b9:2f:0c:fe:0f:
         8d:d2:ab:d8:50:59:9f:0d:be:70:66:01:2c:73:f7:a1:fb:2b:
         f0:6f:09:8d:89:90:7b:2f:9d:49:99:be:ee:2b:e2:41:9f:fa:
         64:d2:0e:e1:1a:81:ee:4f:48:4f:3e:00:e9:07:bc:4c:07:de:
         18:80:4f:83
-----BEGIN CERTIFICATE-----
MIIDXzCCAkegAwIBAgIBAzANBgkqhkiG9w0BAQsFADBPMQswCQYDVQQGEwJVUzET
MBEGA1UECAwKQ2FsaWZvcm5pYTERMA8GA1UECgwITTJDcnlwdG8xGDAWBgNVBAMM
D0hlaWtraSBUb2l2b25lbjAeFw0xOTEwMDkwNzU4MzVaFw00OTEyMzEwNzU4Mzda
MGkxCzAJBgNVBAYTAlVTMRMwEQYDVQQIDApDYWxpZm9ybmlhMREwDwYDVQQKDAhN
MkNyeXB0bzEPMA0GA1UEAwwGU2lnbmVyMSEwHwYJKoZIhvcNAQkBFhJzaWduZXJA
ZXhhbXBsZS5jb20wggEiMA0GCSqGSIb3DQEBAQUAA4IBDwAwggEKAoIBAQDIhYY9
cqqR2HsRAgWStxu/nzW+iFbblvJwPpg8w2JC/1R0emPnqUyuUkiiT6vFax3eObjw
iTYV93A9qKbDST4Q2K66zxrm3QvYzdkA6lfyfC5tiYCVaLH9BrzqukTB+iCHV9Os
5bRduk8QIIJbGyd1swzOT3k/SY7juhQwz4qCEWVZeHtBFkPo6n+kYFJGk1NO3oc/
UIpWxdMEXDyi07Bk2M4eda3OzZGxWMwtptzatbLCDi9odKelbmFMAfLQfYNmeGaf
uYczzFncA4Jvu5gM6RBjEu7pBcFbmH6UZZjfMb9ZkPAcbKwsG92QcasRlYuc9yov
wA8tschaZdapNESBAgMBAAGjLDAqMAkGA1UdEwQCMAAwHQYDVR0OBBYEFGgDMyfZ
h5rqfUHYLev57qvJasX6MA0GCSqGSIb3DQEBCwUAA4IBAQANXp4Efdu2Ss9LLeXk
Lf7q+ybwHSQ2HJPZnP3YeLBIqIfQkYpGOrQeSCzxwh98A6I/O5GtVRwsQgkZX9y+
Lb3ldB4rNEuMr02Jttpq6+Nv7EBHG1M841rDA1IMZJbSJC+K2ePpmwoQXPoQd8C2
6zod0HZnVVdxTvmRRRQwdLRtiEhsM9GepKNej1ZXQojOMFxkjdSq6E1Hib2XT0Ox
UbRAQRbe0l2MbYOWGJjRAQPHBkQcMmDr+BruiihdriwGnz2xuS8M/g+N0qvYUFmf
Db5wZgEsc/eh+yvwbwmNiZB7L51Jmb7uK+JBn/pk0g7hGoHuT0hPPgDpB7xMB94Y
gE+D
-----END CERTIFICATE-----
