Certificate:
    Data:
        Version: 3 (0x2)
        Serial Number: 2 (0x2)
        Signature Algorithm: sha256WithRSAEncryption
        Issuer: C=US, ST=California, O=M2Crypto, CN=Heikki Toivonen
        Validity
            Not Before: Oct  7 15:12:02 2018 GMT
            Not After : Oct  4 15:12:02 2028 GMT
        Subject: C=US, ST=California, O=M2Crypto, CN=X509
        Subject Public Key Info:
            Public Key Algorithm: rsaEncryption
                RSA Public-Key: (2048 bit)
                Modulus:
                    00:ef:90:05:eb:97:7f:e3:10:d7:09:f4:1d:64:2a:
                    21:d2:ba:39:e6:2c:81:ea:93:2b:58:af:5d:2e:a3:
                    34:90:7a:e4:60:af:5a:ef:f1:19:2a:e9:b7:18:43:
                    f3:81:5e:77:4c:19:82:6f:00:4a:41:94:29:5a:0a:
                    43:1a:a4:e9:c3:48:a8:66:04:ca:ee:ea:01:b6:54:
                    02:1e:46:1a:a1:de:56:d1:47:6b:ab:09:20:d5:63:
                    b3:b4:c7:84:bd:02:1d:79:56:8a:f1:f4:d6:27:72:
                    b4:15:d2:5f:7a:73:db:d0:8f:0a:51:05:be:e7:79:
                    0b:39:2a:d6:65:89:7d:d3:93:b5:25:8d:ce:9e:bb:
                    67:7b:39:4a:83:2e:5d:e2:de:fd:e9:30:81:51:f4:
                    1b:34:4b:d2:76:a0:9f:38:a8:53:6e:d9:9b:99:16:
                    18:d7:41:5b:0e:e4:e4:a7:4c:cd:38:d3:ae:24:a0:
                    ce:0f:1e:4f:25:24:a3:31:e6:94:97:92:f8:f5:4b:
                    48:4b:5b:c1:cc:95:b8:4d:c6:66:c1:5c:3e:24:4f:
                    b4:f3:98:f5:03:91:43:9b:de:a8:71:15:ef:2d:84:
                    69:c7:35:02:fa:0f:41:95:cf:9e:b5:15:4f:7a:c6:
                    2d:04:61:93:54:74:26:df:cc:22:2b:f7:c2:e8:06:
                    04:0b
                Exponent: 65537 (0x10001)
        X509v3 extensions:
            X509v3 Basic Constraints: 
                CA:FALSE
            X509v3 Subject Key Identifier: 
                AD:29:34:8E:8E:5A:8A:93:76:3C:ED:9F:2C:E6:6A:18:D2:D0:AF:C2
    Signature Algorithm: sha256WithRSAEncryption
         35:d2:e4:c4:eb:01:ea:25:bc:31:91:06:6d:38:c0:86:f4:ad:
         ef:59:f1:fa:f7:f1:26:04:4f:a3:92:4d:ea:7c:6a:8e:94:4d:
         59:cf:55:3e:d2:21:19:e1:ec:1f:01:89:53:80:1e:3d:c1:23:
         44:71:3d:f0:43:f4:3e:c7:d6:0e:45:62:64:7f:68:71:87:fe:
         26:5f:a5:13:ce:05:ae:66:1a:2a:f0:98:4a:62:23:19:44:22:
         cf:0f:38:be:0d:ec:60:fd:45:f3:29:c2:cd:f5:1d:6d:44:05:
         11:ac:d2:a3:2f:63:3f:5e:7e:34:3c:fb:f6:70:2f:ae:d3:50:
         16:57:57:58:ba:41:a0:65:f3:45:a9:f6:ae:2f:a1:8f:83:84:
         59:4a:75:c4:58:b2:6b:4b:b5:25:5f:5a:a0:dd:d9:18:e2:d7:
         a9:5a:da:0a:83:15:ab:08:a7:98:86:e2:fa:ba:4f:47:70:b6:
         90:70:8d:05:ca:08:a9:94:be:27:af:43:a9:6e:ec:12:6a:b2:
         8e:83:26:b8:72:cd:63:9b:19:a1:c9:ff:b2:c5:cf:ec:ce:7a:
         13:b8:dd:06:9f:55:85:0d:23:a1:ae:5e:50:67:57:b4:8d:e3:
         49:0f:c0:ee:42:06:64:6d:72:c4:7b:2b:7d:87:28:17:36:59:
         01:44:dc:38
-----BEGIN CERTIFICATE-----
MIIDOjCCAiKgAwIBAgIBAjANBgkqhkiG9w0BAQsFADBPMQswCQYDVQQGEwJVUzET
MBEGA1UECAwKQ2FsaWZvcm5pYTERMA8GA1UECgwITTJDcnlwdG8xGDAWBgNVBAMM
D0hlaWtraSBUb2l2b25lbjAeFw0xODEwMDcxNTEyMDJaFw0yODEwMDQxNTEyMDJa
MEQxCzAJBgNVBAYTAlVTMRMwEQYDVQQIDApDYWxpZm9ybmlhMREwDwYDVQQKDAhN
MkNyeXB0bzENMAsGA1UEAwwEWDUwOTCCASIwDQYJKoZIhvcNAQEBBQADggEPADCC
AQoCggEBAO+QBeuXf+MQ1wn0HWQqIdK6OeYsgeqTK1ivXS6jNJB65GCvWu/xGSrp
txhD84Fed0wZgm8ASkGUKVoKQxqk6cNIqGYEyu7qAbZUAh5GGqHeVtFHa6sJINVj
s7THhL0CHXlWivH01idytBXSX3pz29CPClEFvud5Czkq1mWJfdOTtSWNzp67Z3s5
SoMuXeLe/ekwgVH0GzRL0nagnzioU27Zm5kWGNdBWw7k5KdMzTjTriSgzg8eTyUk
ozHmlJeS+PVLSEtbwcyVuE3GZsFcPiRPtPOY9QORQ5veqHEV7y2Eacc1AvoPQZXP
nrUVT3rGLQRhk1R0Jt/MIiv3wugGBAsCAwEAAaMsMCowCQYDVR0TBAIwADAdBgNV
HQ4EFgQUrSk0jo5aipN2PO2fLOZqGNLQr8IwDQYJKoZIhvcNAQELBQADggEBADXS
5MTrAeolvDGRBm04wIb0re9Z8fr38SYET6OSTep8ao6UTVnPVT7SIRnh7B8BiVOA
Hj3BI0RxPfBD9D7H1g5FYmR/aHGH/iZfpRPOBa5mGirwmEpiIxlEIs8POL4N7GD9
RfMpws31HW1EBRGs0qMvYz9efjQ8+/ZwL67TUBZXV1i6QaBl80Wp9q4voY+DhFlK
dcRYsmtLtSVfWqDd2Rji16la2gqDFasIp5iG4vq6T0dwtpBwjQXKCKmUvievQ6lu
7BJqso6DJrhyzWObGaHJ/7LFz+zOehO43QafVYUNI6GuXlBnV7SN40kPwO5CBmRt
csR7K32HKBc2WQFE3Dg=
-----END CERTIFICATE-----
-----BEGIN RSA PRIVATE KEY-----
MIIEpAIBAAKCAQEA75AF65d/4xDXCfQdZCoh0ro55iyB6pMrWK9dLqM0kHrkYK9a
7/EZKum3GEPzgV53TBmCbwBKQZQpWgpDGqTpw0ioZgTK7uoBtlQCHkYaod5W0Udr
qwkg1WOztMeEvQIdeVaK8fTWJ3K0FdJfenPb0I8KUQW+53kLOSrWZYl905O1JY3O
nrtnezlKgy5d4t796TCBUfQbNEvSdqCfOKhTbtmbmRYY10FbDuTkp0zNONOuJKDO
Dx5PJSSjMeaUl5L49UtIS1vBzJW4TcZmwVw+JE+085j1A5FDm96ocRXvLYRpxzUC
+g9Blc+etRVPesYtBGGTVHQm38wiK/fC6AYECwIDAQABAoIBAQCR6lmQzDB7L9Cr
IWOdlQQRBJkrl8RyCr4GQJozQ/lKX3Ana+ep6mJ3/u8k+o6hJ9bmJUuLLNQN6Z7e
Vw3Udspjxie8LAMnTqVIVxcLNYwXOAQNaMEt5lt3XkkhPb2eGmG1fH8ZLRYb5QPH
nuHFBjjHabjQ7P0ApHuvkGYSZpKbgVjEIwWxCPlzMo0XmePK0dJVAxsmtNFSoJkD
6UOwX8HN79thbSLwyCSnUUkHbglHLqgBvgLY4uW7BBMuFFW6v1jp1YR3gqhzrHgW
q43WIOEJBBvoI1it8TA7N28IjiA/G+DKeM3KNYAc5m30iXtq+ky/G9xdrhOEDZTs
mj4JInkhAoGBAPwZAmT1aZuftPp90IRATESrxGo0n1uZsF9CBur8+dZKPTgGrtfJ
e+1yh+LKvowY0a4B82nehq0FcHsSjBHXRbwgHd4KSYV0LCc5ZwxQlPg9FKtziFmm
RYPGanpNEdJ8tz0Wj67gP2aIHRaauFxTwSoXyfvrYLWHnvMotUH6QOejAoGBAPNF
VzyJwzdT8WKx8CaWmIoSglE0wIcRtnOgHxZUuNnxdjjnRYgMQDE3GaDnK0TzyH4c
3ewasxCVnfqTR9zPeyu3AdeaxWgOJGirYPQM3qxv85n/7BKGeBoAA3yf9kEpIw9h
M80i1VfgXaRJ+ldwMgVJu5klG0jm/YCFzF6O7dh5AoGANUG/TL6/qb3KiOSNaXL/
6b3zx5AIXlyQcv9K4NfCm++hETXwN+v7v0TjyhiUupn/qegFmUcGYoT0pzta1eYJ
eF28kYzQzV2mej7ZMzPO1MZqmHHWy0GiC92d3uprKnFocIJUplf/bNSyeHUFH5Qe
CZtu80ZdbtwQy0O9TwvkLEsCgYEAx6qcBUYVAi5Vqunc7+8e2ASFDV28v5+cHp7H
pS54Yfk7TU0U1qsnbL2KvXO/IeLtJgVPaGAppG0Iswd7LhLlR2X3jxyq9dLVs0sm
UmjVwrZIPJe/DR1tKfnk4r7wAV9gNVlUiQQUEwJGGXfWjzm49HomDXZVRKrCWmB2
8w1gzhECgYBAKhY8brV3bKSKarmlqWV4bhFuxZ8BpY9e3l0MxX3/eHqdimbQEptA
Q6aownp7nurRf9i1m8u1+zbp6efcweEaA9BR+bX0gaGgbDhUY1dQ0/YLUX1Pv5OE
zxCUdc9xW3qTt9Pp/kglGCqM7Nrm71cV86FDHbjDUwY5MzvD1ZLQWg==
-----END RSA PRIVATE KEY-----
