Certificate:
    Data:
        Version: 3 (0x2)
        Serial Number: 0 (0x0)
        Signature Algorithm: sha256WithRSAEncryption
        Issuer: C=US, ST=California, O=M2Crypto, CN=Heikki Toivonen
        Validity
            Not Before: Sep 15 22:29:11 2024 GMT
            Not After : Sep 13 22:29:11 2034 GMT
        Subject: C=US, ST=California, O=M2Crypto, CN=Heikki Toivonen
        Subject Public Key Info:
            Public Key Algorithm: rsaEncryption
                RSA Public-Key: (2048 bit)
                Modulus:
                    00:ca:fc:eb:14:1f:8d:68:eb:8b:0f:06:b6:0e:c9:
                    67:b2:e7:97:8e:44:05:8d:a3:92:a7:e1:5c:4c:76:
                    e0:1e:7c:18:50:63:8c:6f:e2:3d:d1:6b:d8:62:ad:
                    c3:5f:90:28:33:0d:47:a4:69:e5:31:c8:a7:e4:53:
                    71:d4:f6:b1:01:36:1d:78:e5:92:4d:2f:00:7e:e7:
                    ca:62:c1:ba:c7:f9:93:3b:cf:97:89:00:d0:17:16:
                    01:79:34:d9:89:88:e4:d7:b2:e4:24:c2:87:12:dd:
                    90:f9:a8:fb:82:68:77:37:39:31:95:e5:bf:77:2e:
                    3b:66:83:7e:ed:e1:c0:eb:8d:30:7e:32:42:c9:d4:
                    8e:73:0a:97:07:2b:c2:cd:18:01:12:d6:c7:bc:74:
                    47:24:43:64:70:42:27:2b:a3:26:7a:b7:34:a4:e6:
                    1c:94:46:2a:a5:a7:99:7e:a0:1d:a4:92:e7:5d:03:
                    c6:4b:18:a5:da:ba:26:68:23:a5:a6:a3:2a:92:38:
                    60:d5:7e:4f:21:73:26:32:4c:8e:90:bf:dd:5c:95:
                    67:2c:00:57:5b:80:29:50:7f:a5:5c:aa:cd:3b:40:
                    5a:df:2c:d3:88:cc:bb:8a:eb:04:1e:35:6e:71:e3:
                    84:51:d6:2e:19:26:94:a1:b2:17:1b:a9:8a:8c:c0:
                    ff:e7
                Exponent: 65537 (0x10001)
        X509v3 extensions:
            X509v3 Basic Constraints: 
                CA:TRUE
            X509v3 Subject Key Identifier: 
                E1:2E:A7:59:E3:D5:90:F4:4A:B8:E8:1B:0B:1B:99:41:90:73:82:60
    Signature Algorithm: sha256WithRSAEncryption
    Signature Value:
        a1:9f:54:a4:4e:5f:77:6e:fe:97:81:48:f3:9c:a0:4b:cf:95:
        db:de:63:66:27:12:ab:f2:ee:94:95:4c:a1:90:7e:68:21:ec:
        4b:82:4c:d6:90:72:fd:56:d8:12:6c:fa:fe:e4:7e:b7:8b:fb:
        96:d7:2c:d5:b9:44:b1:e9:e3:61:ec:bf:0e:dd:d8:08:3c:ec:
        04:5c:d3:0c:6a:c9:1f:c6:00:77:16:ba:5f:03:20:32:20:b3:
        8c:2c:ef:23:ed:9e:b4:72:8a:6b:af:68:6f:3c:b6:3e:d9:42:
        4a:33:85:81:0c:1b:b8:7f:4b:e1:f3:6d:ec:3d:61:9c:bd:f4:
        23:4a:75:b1:c9:d8:45:47:42:1a:4b:22:d8:ad:11:02:3c:b5:
        e3:66:b2:d0:b6:3d:fc:db:3c:9b:42:bb:38:77:99:0d:e3:df:
        81:8a:84:38:c9:ea:fc:db:ad:3b:54:08:c4:d2:db:6f:ea:cd:
        f8:34:95:d4:7b:3b:28:20:77:13:ba:0a:c8:f5:10:33:f3:62:
        05:0b:f3:0c:dd:5b:0c:85:80:e0:57:55:58:9c:96:04:62:25:
        d1:1c:80:27:86:90:b9:fd:2c:9b:5a:ca:ae:a7:ce:7e:81:5e:
        90:42:77:8a:83:46:99:9e:f1:76:88:ab:46:a8:c1:f1:33:1f:
        3b:98:e9:5f
-----BEGIN CERTIFICATE-----
MIIDSDCCAjCgAwIBAgIBADANBgkqhkiG9w0BAQsFADBPMQswCQYDVQQGEwJVUzET
MBEGA1UECAwKQ2FsaWZvcm5pYTERMA8GA1UECgwITTJDcnlwdG8xGDAWBgNVBAMM
D0hlaWtraSBUb2l2b25lbjAeFw0yNDA5MTUyMjI5MTFaFw0zNDA5MTMyMjI5MTFa
ME8xCzAJBgNVBAYTAlVTMRMwEQYDVQQIDApDYWxpZm9ybmlhMREwDwYDVQQKDAhN
MkNyeXB0bzEYMBYGA1UEAwwPSGVpa2tpIFRvaXZvbmVuMIIBIjANBgkqhkiG9w0B
AQEFAAOCAQ8AMIIBCgKCAQEAyvzrFB+NaOuLDwa2DslnsueXjkQFjaOSp+FcTHbg
HnwYUGOMb+I90WvYYq3DX5AoMw1HpGnlMcin5FNx1PaxATYdeOWSTS8AfufKYsG6
x/mTO8+XiQDQFxYBeTTZiYjk17LkJMKHEt2Q+aj7gmh3NzkxleW/dy47ZoN+7eHA
640wfjJCydSOcwqXByvCzRgBEtbHvHRHJENkcEInK6Mmerc0pOYclEYqpaeZfqAd
pJLnXQPGSxil2romaCOlpqMqkjhg1X5PIXMmMkyOkL/dXJVnLABXW4ApUH+lXKrN
O0Ba3yzTiMy7iusEHjVuceOEUdYuGSaUobIXG6mKjMD/5wIDAQABoy8wLTAMBgNV
HRMEBTADAQH/MB0GA1UdDgQWBBThLqdZ49WQ9Eq46BsLG5lBkHOCYDANBgkqhkiG
9w0BAQsFAAOCAQEAoZ9UpE5fd27+l4FI85ygS8+V295jZicSq/LulJVMoZB+aCHs
S4JM1pBy/VbYEmz6/uR+t4v7ltcs1blEsenjYey/Dt3YCDzsBFzTDGrJH8YAdxa6
XwMgMiCzjCzvI+2etHKKa69obzy2PtlCSjOFgQwbuH9L4fNt7D1hnL30I0p1scnY
RUdCGksi2K0RAjy142ay0LY9/Ns8m0K7OHeZDePfgYqEOMnq/NutO1QIxNLbb+rN
+DSV1Hs7KCB3E7oKyPUQM/NiBQvzDN1bDIWA4FdVWJyWBGIl0RyAJ4aQuf0sm1rK
rqfOfoFekEJ3ioNGmZ7xdoirRqjB8TMfO5jpXw==
-----END CERTIFICATE-----
-----BEGIN RSA PRIVATE KEY-----
MIIEpQIBAAKCAQEAyvzrFB+NaOuLDwa2DslnsueXjkQFjaOSp+FcTHbgHnwYUGOM
b+I90WvYYq3DX5AoMw1HpGnlMcin5FNx1PaxATYdeOWSTS8AfufKYsG6x/mTO8+X
iQDQFxYBeTTZiYjk17LkJMKHEt2Q+aj7gmh3NzkxleW/dy47ZoN+7eHA640wfjJC
ydSOcwqXByvCzRgBEtbHvHRHJENkcEInK6Mmerc0pOYclEYqpaeZfqAdpJLnXQPG
Sxil2romaCOlpqMqkjhg1X5PIXMmMkyOkL/dXJVnLABXW4ApUH+lXKrNO0Ba3yzT
iMy7iusEHjVuceOEUdYuGSaUobIXG6mKjMD/5wIDAQABAoIBAFyPtTCBbM29rrUE
5erbO26wvYLRkMi0ILFuCdUSVgOAqeOqaUUxoOfIqizhOJhwl2wkL5mQ8kLf0XND
+8HVVgSL5SeWY77PYoX782VSGvaKX3GkKWD/XmRQlA5to47cPiH/wJnknIxlPXEi
9cFTGp2zdmF4mPTjP5Hw/2XBDmQ6NvZYeL1cX5Xq4H3CUDzk0eJrakzbnYe7vSbt
4pUOW+klBe6LxnlEAwFLV8Btxuul7axDXRw3TgSyQUPIPoB0Orblt8l1/XU3zDeQ
zbUnbZ5HKEptgQMYsYn28pgaFdrHXEhGMdZ92nr3HbkAnOsdcfRgDCQN+0WzQJbl
ljaRx1ECgYEA8YPYQ2fwM31GMHv0lfqx8+ID3xUO5h56/80/sjq7XdBEJCvKOjNC
Hi3kl6yM0EtdvAq9S0JXSamPg5J+xVSkqCZXEUKtkVlITFMN+prD0FenASKgnou3
4jJB5nPRsZ0PAGNY5cFyT9mk9gX4SGPKuvz6/Qfx+qhCRAEb2RrlRtcCgYEA1ymK
JwL3vK+zCHwJpkGTd72iZVjbQtCVa5UlCw7APfXE9A/zjLT4WES84KUt2bZigPG/
8YXUGNBPJns45Ts7Q7x/jx3r4DZhH52pGzb69eoFp9ENWmFJuOLQAI+1swu7kOz+
SuWxhe/aocKBGxwR1HtorVMzBb/4MHVINxHAvXECgYEA0Fk2QwgyfqjO2VrF6HCp
/cP4JQYMoVagM3cEQSRLqSXW8wFX5xd7LX/X2UUBAVxTE7qMDJXBqYl+hjnl5SQd
G/ZfXEOSanaEWVu5Dn1e+af0KZWOzNepnZhPo5g8ySW94E7UTPiyPdJ7bcY+p2x3
YxKFD65AAUYQTIxMUuHR82cCgYEAwmj2O2mjDwpyaigpT9/Qr1DZe1leRHDTkfGh
FuytJ076Nsxy86BRBPCW+SRG2YDCYGAPXtvdWM5fthWAwx9R3VJkr5wJlP2NpFOA
iOaUu75IfemWdyOQyU2nQ9qWAsGHKNv6qRIB5VNj6OUmYqhqM+OOIY4bfAaI6sAO
EDQqQwECgYEAmvC+H8Aia5F920ONYVLAGW+VQGPXQo1ZYa26phDwN3FM9W+sJ3Fb
/fzkF5wjRs3wSuskkoLlHImWxYOIXLZxxeSKUbvQV+F7So+8O1K9AYgjfkqJDFPt
tmfTM0PWwYpBmrbijVjGSUutuu0RK54XfVVrfn5AWrJo0lGqm52Hi5k=
-----END RSA PRIVATE KEY-----
