Certificate:
    Data:
        Version: 3 (0x2)
        Serial Number: 4 (0x4)
        Signature Algorithm: sha256WithRSAEncryption
        Issuer: C=US, ST=California, O=M2Crypto, CN=Heikki Toivonen
        Validity
            Not Before: Sep 15 22:29:11 2024 GMT
            Not After : Sep 13 22:29:11 2034 GMT
        Subject: C=US, ST=California, O=M2Crypto, CN=Recipient/emailAddress=recipient@example.com
        Subject Public Key Info:
            Public Key Algorithm: rsaEncryption
                RSA Public-Key: (2048 bit)
                Modulus:
                    00:a0:96:3e:93:6e:bf:20:86:b9:1a:0b:e0:4b:29:
                    37:36:10:53:39:3b:26:2f:7f:a3:85:2c:5c:2f:67:
                    fd:0c:49:c7:15:68:7b:d0:0a:4f:4b:28:3c:c2:80:
                    2e:de:36:2c:b1:b5:5a:b6:b3:92:af:1b:e0:69:d3:
                    ca:18:5d:27:26:87:4e:52:4e:51:f3:ae:f2:e5:8d:
                    cb:70:ea:f0:b6:ce:0c:e8:c2:4b:f2:2e:1f:17:b5:
                    4b:70:bd:ba:88:62:2e:57:9d:ed:93:7f:60:20:18:
                    41:3c:b5:e9:6b:fd:4b:6a:14:bb:4b:2a:70:65:bf:
                    ec:33:b7:ff:62:2e:f6:b0:12:31:51:2c:9c:22:45:
                    77:fe:c5:9a:16:dc:6b:83:c2:1f:ec:04:db:fa:69:
                    3b:21:18:f7:4a:f0:66:7b:26:66:8d:f2:16:c6:60:
                    65:ae:8d:65:7b:7a:61:1d:f0:99:74:16:2b:f8:e1:
                    e7:53:14:3d:69:18:6e:b5:6a:b3:9b:85:a8:2a:38:
                    6a:8d:6a:0d:e9:45:2d:61:62:35:95:ff:e8:6f:74:
                    1b:d5:83:97:9f:a2:bd:8d:a5:ae:e7:71:ef:03:42:
                    af:d7:97:34:91:b1:d5:9e:03:43:c9:1b:a7:5f:5d:
                    b2:49:97:39:25:a6:db:a8:ed:e9:1d:26:66:bb:e4:
                    5c:2f
                Exponent: 65537 (0x10001)
        X509v3 extensions:
            X509v3 Basic Constraints: 
                CA:FALSE
            X509v3 Subject Key Identifier: 
                86:29:7A:15:96:A4:23:DD:02:BE:A9:06:1C:18:79:6E:FD:C6:53:84
    Signature Algorithm: sha256WithRSAEncryption
    Signature Value:
        89:c8:5d:9e:47:b1:11:65:ac:dd:6f:b8:d1:41:fa:23:d7:5a:
        6c:42:2f:01:7f:9c:a4:0d:6a:b1:1e:c0:0f:5c:47:30:5c:5e:
        74:e0:50:21:d3:35:5f:de:93:e5:b7:c2:12:58:2e:c4:f3:8f:
        b7:22:40:b3:9f:76:26:51:ef:e6:49:f0:df:4f:b7:52:42:49:
        66:90:a7:9e:04:87:ed:2c:fe:df:d6:73:69:64:fe:21:41:17:
        52:bc:a4:6b:7d:b0:41:e8:4b:3e:de:d9:a6:48:00:66:c5:8f:
        6d:34:b4:a7:12:48:81:e2:0a:84:b1:9b:fa:cf:76:72:a7:3a:
        02:42:83:db:20:6c:bf:80:24:e7:57:f5:01:ce:82:7e:fc:b8:
        dd:dc:34:89:2c:98:99:ae:6d:da:c7:b0:a0:c2:ec:d6:c1:34:
        50:69:6e:ad:3b:7a:ec:41:13:82:ad:27:ef:01:bd:69:40:d3:
        00:26:e6:bd:53:16:e4:34:54:d1:fc:c0:f5:e5:92:33:95:03:
        ac:b5:18:42:e7:10:d6:cf:c0:c9:08:42:da:d1:b6:2d:55:ce:
        74:ec:b9:af:23:2f:b2:fa:b5:47:de:b2:c6:e6:25:4d:19:48:
        1b:60:31:36:a5:09:b6:84:06:f3:5f:da:d2:ba:0a:84:86:49:
        59:53:67:0a
-----BEGIN CERTIFICATE-----
MIIDZTCCAk2gAwIBAgIBBDANBgkqhkiG9w0BAQsFADBPMQswCQYDVQQGEwJVUzET
MBEGA1UECAwKQ2FsaWZvcm5pYTERMA8GA1UECgwITTJDcnlwdG8xGDAWBgNVBAMM
D0hlaWtraSBUb2l2b25lbjAeFw0yNDA5MTUyMjI5MTFaFw0zNDA5MTMyMjI5MTFa
MG8xCzAJBgNVBAYTAlVTMRMwEQYDVQQIDApDYWxpZm9ybmlhMREwDwYDVQQKDAhN
MkNyeXB0bzESMBAGA1UEAwwJUmVjaXBpZW50MSQwIgYJKoZIhvcNAQkBFhVyZWNp
cGllbnRAZXhhbXBsZS5jb20wggEiMA0GCSqGSIb3DQEBAQUAA4IBDwAwggEKAoIB
AQCglj6Tbr8ghrkaC+BLKTc2EFM5OyYvf6OFLFwvZ/0MSccVaHvQCk9LKDzCgC7e
NiyxtVq2s5KvG+Bp08oYXScmh05STlHzrvLljctw6vC2zgzowkvyLh8XtUtwvbqI
Yi5Xne2Tf2AgGEE8telr/UtqFLtLKnBlv+wzt/9iLvawEjFRLJwiRXf+xZoW3GuD
wh/sBNv6aTshGPdK8GZ7JmaN8hbGYGWujWV7emEd8Jl0Fiv44edTFD1pGG61arOb
hagqOGqNag3pRS1hYjWV/+hvdBvVg5efor2Npa7nce8DQq/XlzSRsdWeA0PJG6df
XbJJlzklptuo7ekdJma75FwvAgMBAAGjLDAqMAkGA1UdEwQCMAAwHQYDVR0OBBYE
FIYpehWWpCPdAr6pBhwYeW79xlOEMA0GCSqGSIb3DQEBCwUAA4IBAQCJyF2eR7ER
Zazdb7jRQfoj11psQi8Bf5ykDWqxHsAPXEcwXF504FAh0zVf3pPlt8ISWC7E84+3
IkCzn3YmUe/mSfDfT7dSQklmkKeeBIftLP7f1nNpZP4hQRdSvKRrfbBB6Es+3tmm
SABmxY9tNLSnEkiB4gqEsZv6z3ZypzoCQoPbIGy/gCTnV/UBzoJ+/Ljd3DSJLJiZ
rm3ax7CgwuzWwTRQaW6tO3rsQROCrSfvAb1pQNMAJua9UxbkNFTR/MD15ZIzlQOs
tRhC5xDWz8DJCELa0bYtVc507LmvIy+y+rVH3rLG5iVNGUgbYDE2pQm2hAbzX9rS
ugqEhklZU2cK
-----END CERTIFICATE-----
-----BEGIN RSA PRIVATE KEY-----
MIIEpQIBAAKCAQEAoJY+k26/IIa5GgvgSyk3NhBTOTsmL3+jhSxcL2f9DEnHFWh7
0ApPSyg8woAu3jYssbVatrOSrxvgadPKGF0nJodOUk5R867y5Y3LcOrwts4M6MJL
8i4fF7VLcL26iGIuV53tk39gIBhBPLXpa/1LahS7SypwZb/sM7f/Yi72sBIxUSyc
IkV3/sWaFtxrg8If7ATb+mk7IRj3SvBmeyZmjfIWxmBlro1le3phHfCZdBYr+OHn
UxQ9aRhutWqzm4WoKjhqjWoN6UUtYWI1lf/ob3Qb1YOXn6K9jaWu53HvA0Kv15c0
kbHVngNDyRunX12ySZc5JabbqO3pHSZmu+RcLwIDAQABAoIBABy6Q/+D9FURRNPQ
BBPuD55wVTMLzcz5fHs6cFNauv4TxLWjt2KENaMwU45H+BpwfpZb5xqADWGeDwtf
g+vP3k0aL3yx3h9F0NYYA6jznpRVUCHjgEqWzaEkIZbNmi0Dw16RNgsI4l1beXAu
6s8SxQb5JnhP40OQjeTCqcEava7JiXciUx6AhGnf6iJA62eQI3RffvMAgmIqSuEh
8HCjnzHAvjBZTmK2Xktv0TH6NJyIrSSOHhym89oCXToKhjLfrywrQDHNXvt24rWn
DpWgn+LwpRXiwyxYczwYhp4NCo4fBl1mFhafczyZ0oaeTGr61zWkQsWf2bS17HjU
0nq6vCECgYEA4EmkqnfSGP8QKzlq4TqOnUSCJrCA+KKdeKWKtnzoSqf1Snxjm5ul
xwfsh+lsjw+OsNSUhVenfbb+zClMoMOBob7DkLlhgMCAvdBLNJpj9uWqbMsNdpqp
+oP/k+c+1sHn28t088GuwKokdj72FGE12bJz+C/IBlrFn+X++8hdI90CgYEAt0rg
X1l+DO6redKiPa0hc7UorFNDw51jBB4WFZpovFDlTeGJhnh3n883oL4uIG4yMsuq
hMVskCkZY71L7EudnYZkbDDYDzGMUIxsEemL7USZ6DHbKSlm0nw/PpSDnGweM8Pk
VrhPB2nYtT+2lVK4FmsKnT1vDMFerKNXu6pPFXsCgYEAhilHCHk4AZ/A6jokRqmi
WUx7le0KmK+dBmfve41n3hBt16pkYtZN6apBwGLOfxzNO9VNKh3uoHJwI2uo3JlV
14ymqtFZE40S9Xe9JLAdj7h9oyoq2YFWn/WJUc2HdyryKDWhtZVrlO+xc9HhnPsx
HRFz8UeTnMl7YVRQnAeUPzkCgYEArYA/K4K3At7ZipOL5/3+cFzHh3e56W0N0VP5
a7Gh+sBIjpQzbgqSkb/A1HOxjhlBgzuuycdnoH6G/haty5s4M2iHnrINkzQ/se96
TOpZ/dq2JUksP6ZlIlFiPIawnlzpqe6AMmZ8yHO1IryQxIBsqSvh/D2u5NAWIizs
W0Q3YAkCgYEAvmuMpr63DVmLDZeiaMxNBw5dr0UXa422zD7KOQSA1ktWhF2tVEA5
BAp+loBUik0d23SQ74fQwpfH1s7OC7Mc3gHW/X6IFc1gutZ0KJTvbkgpqBvhfi6j
fVhENjZxOj6BCglrcOd54kI2AHqEU26wYd9K/leJp9SedDJjIK9g6O4=
-----END RSA PRIVATE KEY-----
