Certificate:
    Data:
        Version: 3 (0x2)
        Serial Number: 1 (0x1)
        Signature Algorithm: sha256WithRSAEncryption
        Issuer: C=US, ST=California, O=M2Crypto, CN=Heikki Toivonen
        Validity
            Not Before: Sep 15 22:29:11 2024 GMT
            Not After : Sep 13 22:29:11 2034 GMT
        Subject: C=US, ST=California, O=M2Crypto, CN=localhost
        Subject Public Key Info:
            Public Key Algorithm: rsaEncryption
                RSA Public-Key: (2048 bit)
                Modulus:
                    00:b9:d7:87:34:7a:8b:c6:c6:fa:ec:05:60:75:4f:
                    ba:e6:3c:0b:3b:70:f4:d6:0a:57:20:38:2d:ef:de:
                    9c:61:45:69:d4:69:95:cb:eb:c9:c7:f2:72:07:e1:
                    71:bc:91:5a:ce:65:f8:e5:3c:b2:5a:bf:15:3e:b5:
                    d2:65:25:06:82:dd:fb:1b:a2:5d:02:ab:37:a9:74:
                    84:84:36:f9:22:25:95:2a:a3:ae:be:c5:91:31:94:
                    ca:8b:15:d6:99:8a:b0:d7:ba:48:84:36:9e:0a:6e:
                    eb:66:f5:46:f5:e7:63:1b:1c:97:ea:fd:e8:da:d0:
                    81:ed:87:7d:13:fb:61:5b:0b:b5:9f:cd:e3:b1:0b:
                    ba:57:a6:c9:92:70:02:01:91:aa:7e:12:d4:d6:4e:
                    b6:93:4c:a6:8f:d0:9e:38:df:24:e5:24:1c:04:25:
                    04:f4:6b:c9:b8:0f:b2:af:a6:0e:8a:6c:31:d6:71:
                    bc:17:22:54:97:37:f5:b1:75:e0:75:f7:83:d5:2a:
                    7b:bc:bd:b3:4b:5c:54:0e:a0:a6:2f:0d:67:b2:13:
                    ec:ce:41:34:32:bd:64:8d:89:ac:53:f7:6c:94:77:
                    22:68:d4:83:70:ce:f1:27:fd:43:99:e0:41:1f:88:
                    5c:55:a5:5a:9e:8a:e2:9d:62:0d:9d:52:ef:66:df:
                    32:d3
                Exponent: 65537 (0x10001)
        X509v3 extensions:
            X509v3 Basic Constraints: 
                CA:FALSE
            X509v3 Subject Key Identifier: 
                E7:E7:75:64:20:A3:36:64:11:A8:4F:A9:C6:3F:DB:BD:DF:31:68:45
    Signature Algorithm: sha256WithRSAEncryption
    Signature Value:
        79:de:10:aa:db:4c:95:8c:65:74:c8:2f:1d:f5:9f:8a:d7:71:
        00:51:dc:60:b1:1d:73:37:15:d6:a9:2e:0b:3d:d4:82:87:af:
        a1:03:6b:25:2e:b6:1c:5b:46:fc:80:52:b1:31:4d:8c:52:65:
        99:0c:88:ef:5f:82:99:ce:6b:76:f1:11:ac:66:f7:b0:74:82:
        bf:91:3c:bd:90:3c:5c:9b:d6:98:33:f2:0e:f5:59:87:10:a2:
        fe:9a:91:b7:8c:b2:18:d6:63:71:be:86:67:8b:ca:4e:5b:69:
        55:bc:89:13:06:2c:c6:5f:3f:f4:23:58:5c:47:fd:77:4f:1b:
        a9:eb:91:26:4c:ce:8f:7c:e0:0b:af:6f:83:00:9d:26:d0:98:
        11:fa:29:4c:de:be:2b:d5:7a:2b:9c:0a:e6:84:26:e5:ae:99:
        f6:09:ee:00:5e:df:f1:14:32:8e:c8:0a:56:63:3a:3b:6d:01:
        ee:ff:b2:c2:cd:cb:f7:74:cb:7d:c4:18:b5:33:a4:6f:1b:29:
        e9:2d:a1:77:67:b6:a0:ee:88:95:ea:61:b6:79:ed:ef:4f:d9:
        11:cd:71:35:ff:f8:3b:75:49:6f:6a:ba:24:ff:74:7c:0a:20:
        d7:16:e4:06:3e:a9:b7:13:d2:b3:ac:ae:71:2c:1c:95:8a:29:
        c9:ee:32:8e
-----BEGIN CERTIFICATE-----
MIIDPzCCAiegAwIBAgIBATANBgkqhkiG9w0BAQsFADBPMQswCQYDVQQGEwJVUzET
MBEGA1UECAwKQ2FsaWZvcm5pYTERMA8GA1UECgwITTJDcnlwdG8xGDAWBgNVBAMM
D0hlaWtraSBUb2l2b25lbjAeFw0yNDA5MTUyMjI5MTFaFw0zNDA5MTMyMjI5MTFa
MEkxCzAJBgNVBAYTAlVTMRMwEQYDVQQIDApDYWxpZm9ybmlhMREwDwYDVQQKDAhN
MkNyeXB0bzESMBAGA1UEAwwJbG9jYWxob3N0MIIBIjANBgkqhkiG9w0BAQEFAAOC
AQ8AMIIBCgKCAQEAudeHNHqLxsb67AVgdU+65jwLO3D01gpXIDgt796cYUVp1GmV
y+vJx/JyB+FxvJFazmX45TyyWr8VPrXSZSUGgt37G6JdAqs3qXSEhDb5IiWVKqOu
vsWRMZTKixXWmYqw17pIhDaeCm7rZvVG9edjGxyX6v3o2tCB7Yd9E/thWwu1n83j
sQu6V6bJknACAZGqfhLU1k62k0ymj9CeON8k5SQcBCUE9GvJuA+yr6YOimwx1nG8
FyJUlzf1sXXgdfeD1Sp7vL2zS1xUDqCmLw1nshPszkE0Mr1kjYmsU/dslHciaNSD
cM7xJ/1DmeBBH4hcVaVanorinWINnVLvZt8y0wIDAQABoywwKjAJBgNVHRMEAjAA
MB0GA1UdDgQWBBTn53VkIKM2ZBGoT6nGP9u93zFoRTANBgkqhkiG9w0BAQsFAAOC
AQEAed4QqttMlYxldMgvHfWfitdxAFHcYLEdczcV1qkuCz3UgoevoQNrJS62HFtG
/IBSsTFNjFJlmQyI71+Cmc5rdvERrGb3sHSCv5E8vZA8XJvWmDPyDvVZhxCi/pqR
t4yyGNZjcb6GZ4vKTltpVbyJEwYsxl8/9CNYXEf9d08bqeuRJkzOj3zgC69vgwCd
JtCYEfopTN6+K9V6K5wK5oQm5a6Z9gnuAF7f8RQyjsgKVmM6O20B7v+yws3L93TL
fcQYtTOkbxsp6S2hd2e2oO6Ilephtnnt70/ZEc1xNf/4O3VJb2q6JP90fAog1xbk
Bj6ptxPSs6yucSwclYopye4yjg==
-----END CERTIFICATE-----
-----BEGIN RSA PRIVATE KEY-----
MIIEogIBAAKCAQEAudeHNHqLxsb67AVgdU+65jwLO3D01gpXIDgt796cYUVp1GmV
y+vJx/JyB+FxvJFazmX45TyyWr8VPrXSZSUGgt37G6JdAqs3qXSEhDb5IiWVKqOu
vsWRMZTKixXWmYqw17pIhDaeCm7rZvVG9edjGxyX6v3o2tCB7Yd9E/thWwu1n83j
sQu6V6bJknACAZGqfhLU1k62k0ymj9CeON8k5SQcBCUE9GvJuA+yr6YOimwx1nG8
FyJUlzf1sXXgdfeD1Sp7vL2zS1xUDqCmLw1nshPszkE0Mr1kjYmsU/dslHciaNSD
cM7xJ/1DmeBBH4hcVaVanorinWINnVLvZt8y0wIDAQABAoIBACSmsf6SkJCCW6hC
ozRfpg+UFe8CJvczkN1E1yJwd8zjQKzoqedOuDvbv8t4FdNHo24DRGQJZW9qMglt
GHJkK/WRS922VruZAuBDn4LnyJiIavO+1k6/bhQmMQ/fHbSoWpohHf4dO2v5Vim3
A+ipWq1VJUzuCIdnCcjLqMpREHFA9n40Jtot+WAvGreDdY+oe+LwPf4yNxT2WHw1
KYamJVjQF6yJLjkQJI50/fd6SZ6KPYWjHu1OjnmGf7lzmTrPrOLQ6N+5AUBiDslP
Q83pRIJpKKx5stWu0aU92Esq0i1fbwpeofX+Jghmtgz2wiAMuxyBP5FChRBy9N89
9oBlzpECgYEA8Hir148KAq2Bu/R8K+IIOLtQ0syYHmqb904k4tyv6GRnxTxgslEH
ilVtyDqZs0g+kIub4/2Nh1JQOvTOOz4r05u8v31Tr5SBnIgI4HUHLTWu1KnoDsYb
Ay+m8e+pY0sYnVj+eqJefj9mC8w7tNAiXDI3GFJa84LkHcIojPH7YwkCgYEAxdfB
Wb+NOVXMf/zcs2t0YRNE3xIWWomEHGZM2AYhpiv5gwkcle+o01QaeFecVBybonGL
YUqnAiauTiNx0UJ5KQ31D10HAH94E6iemncyDVVStk4DjkrpGmYJR+jZIYu6nLb9
gJqfgj9thCTvI0yrAOLp3tGkaPlV15G+8GIlkfsCgYALw3t0khTFSMOd9DnW07nf
PJqZlVSjuEdk87euOWmJjs/cwDViw8AArmkucF9we8pDu/CmWJMB2a7/E1a7YzE1
qtqy62iaoEMu6yC0CkWNmqCw2pb1kg9kOoKKN1Ur/FJ58A6S5TqGJofRb+5DzCLC
K9qyH+U/IFoUcpkVPAk2MQKBgFWUb8nfxzoe+BgBDIL8H1qCmE8aJttBEwmp4uGr
PVEBQqxA+8GL6u6HOfAGjdQAj/4juZP7U+TlUI7yXCCV7Y0pwXDE3+uCODHgxcKx
ftAvsVi0xGr/0ned3bPicFJHfBCgQ2Ym/Iq93yTDSUJuvqXigiHlc4YJHO3j2MFo
4zGTAoGALilOYE7QN++G03wm1xlnIj+GJ1FBH8yeBW+y8Cv1v6gSk3p3TWxCHXq0
8orMtnhMAmL4LidxjqqfarL+wqEg6msm3gryK2ELw4OEH3ETyckZsfOYsMKFK/zy
DY1NWgCJYhJPzGVTLPhZAJZY0ahUTqI8gBPBSEg2oaKes3O4p5I=
-----END RSA PRIVATE KEY-----
