Certificate:
    Data:
        Version: 3 (0x2)
        Serial Number: 3 (0x3)
        Signature Algorithm: sha256WithRSAEncryption
        Issuer: C=US, ST=California, O=M2Crypto, CN=Heikki Toivonen
        Validity
            Not Before: Sep 15 22:29:11 2024 GMT
            Not After : Sep 13 22:29:11 2034 GMT
        Subject: C=US, ST=California, O=M2Crypto, CN=Signer/emailAddress=signer@example.com
        Subject Public Key Info:
            Public Key Algorithm: rsaEncryption
                RSA Public-Key: (2048 bit)
                Modulus:
                    00:bd:ff:d7:5f:f8:65:02:92:98:44:72:fe:e2:5b:
                    93:e0:a2:78:00:2c:5d:cd:77:92:eb:fd:5f:c6:fc:
                    09:cb:f9:76:dd:95:ed:07:4f:00:2f:73:75:18:fb:
                    b3:44:19:7c:18:2b:bf:12:56:e9:e5:fb:37:9b:c9:
                    0b:9b:4c:b0:36:60:63:9e:da:73:3a:4d:b7:d0:23:
                    09:4b:08:33:dc:8c:6a:be:f3:74:2d:c8:3c:06:68:
                    d6:54:e5:63:38:71:da:4b:3d:3f:19:b2:c3:67:53:
                    02:20:cd:71:ae:70:bd:f8:5f:e8:a4:f9:1b:5b:d6:
                    e3:4e:2f:68:a6:45:55:95:aa:02:08:f2:d9:dc:71:
                    32:17:7d:32:e8:9e:5c:08:49:dd:b5:7f:b8:bc:b2:
                    65:41:cf:e5:6b:b5:db:4f:a6:c4:ac:c2:1d:16:a6:
                    84:00:6b:fd:74:4f:b5:06:c0:bb:d9:f9:2a:1d:b5:
                    75:b6:dd:53:59:c4:6a:1c:d2:71:a5:fe:19:01:b5:
                    65:be:b0:24:00:7f:63:f4:ac:63:82:a3:b9:c2:4c:
                    d2:07:c4:6e:97:a2:59:c7:8f:0c:fd:0f:4d:de:b5:
                    d7:33:1f:2e:ae:e6:21:58:59:8b:82:79:d9:87:ab:
                    b7:77:b5:ba:2a:61:3f:1d:33:9a:0f:72:15:7d:a1:
                    6b:55
                Exponent: 65537 (0x10001)
        X509v3 extensions:
            X509v3 Basic Constraints: 
                CA:FALSE
            X509v3 Subject Key Identifier: 
                93:E4:7F:25:35:D1:AC:98:6C:77:D2:52:B6:36:42:C0:53:4E:FD:F2
    Signature Algorithm: sha256WithRSAEncryption
    Signature Value:
        9e:4b:46:a1:8e:33:c2:03:40:d3:c6:81:5c:9f:32:2c:ce:21:
        6d:37:32:eb:66:1e:06:0c:80:86:9f:1c:d8:65:91:8d:15:b5:
        44:66:26:30:a0:d5:de:02:16:4b:7e:58:59:bd:29:6b:36:96:
        4c:77:9e:98:68:6b:61:32:c1:c1:c3:d9:4a:70:01:7c:d4:65:
        4f:d6:b3:75:0b:59:16:17:4c:0a:77:fa:c8:e1:52:0d:09:09:
        4a:78:75:ce:9b:91:c1:aa:54:8d:3e:ca:57:f3:4f:d0:23:51:
        b0:83:d7:07:05:18:77:90:c3:a7:aa:fe:9a:8c:ba:e1:35:24:
        89:c1:15:be:22:9f:77:f6:2e:3b:dc:03:11:fa:92:49:95:c4:
        e8:49:4b:40:1a:36:00:1c:1b:7c:60:88:2d:57:51:32:3a:ff:
        1e:1a:ac:73:2b:de:33:ed:64:52:4b:75:37:9f:7a:04:7a:1d:
        b7:26:31:27:74:d0:b8:14:46:83:65:5e:13:ec:63:99:58:0a:
        fb:fd:e2:9a:fe:80:68:f3:d8:96:77:56:9e:5b:68:21:8e:bf:
        9e:62:1a:31:e5:d7:3c:12:14:74:f3:fe:56:bc:e6:d7:be:64:
        36:25:9f:b8:b5:b9:ad:41:42:48:85:41:76:33:da:22:f6:da:
        07:c0:cd:a5
-----BEGIN CERTIFICATE-----
MIIDXzCCAkegAwIBAgIBAzANBgkqhkiG9w0BAQsFADBPMQswCQYDVQQGEwJVUzET
MBEGA1UECAwKQ2FsaWZvcm5pYTERMA8GA1UECgwITTJDcnlwdG8xGDAWBgNVBAMM
D0hlaWtraSBUb2l2b25lbjAeFw0yNDA5MTUyMjI5MTFaFw0zNDA5MTMyMjI5MTFa
MGkxCzAJBgNVBAYTAlVTMRMwEQYDVQQIDApDYWxpZm9ybmlhMREwDwYDVQQKDAhN
MkNyeXB0bzEPMA0GA1UEAwwGU2lnbmVyMSEwHwYJKoZIhvcNAQkBFhJzaWduZXJA
ZXhhbXBsZS5jb20wggEiMA0GCSqGSIb3DQEBAQUAA4IBDwAwggEKAoIBAQC9/9df
+GUCkphEcv7iW5PgongALF3Nd5Lr/V/G/AnL+Xbdle0HTwAvc3UY+7NEGXwYK78S
Vunl+zebyQubTLA2YGOe2nM6TbfQIwlLCDPcjGq+83QtyDwGaNZU5WM4cdpLPT8Z
ssNnUwIgzXGucL34X+ik+Rtb1uNOL2imRVWVqgII8tnccTIXfTLonlwISd21f7i8
smVBz+VrtdtPpsSswh0WpoQAa/10T7UGwLvZ+SodtXW23VNZxGoc0nGl/hkBtWW+
sCQAf2P0rGOCo7nCTNIHxG6XolnHjwz9D03etdczHy6u5iFYWYuCedmHq7d3tboq
YT8dM5oPchV9oWtVAgMBAAGjLDAqMAkGA1UdEwQCMAAwHQYDVR0OBBYEFJPkfyU1
0ayYbHfSUrY2QsBTTv3yMA0GCSqGSIb3DQEBCwUAA4IBAQCeS0ahjjPCA0DTxoFc
nzIsziFtNzLrZh4GDICGnxzYZZGNFbVEZiYwoNXeAhZLflhZvSlrNpZMd56YaGth
MsHBw9lKcAF81GVP1rN1C1kWF0wKd/rI4VINCQlKeHXOm5HBqlSNPspX80/QI1Gw
g9cHBRh3kMOnqv6ajLrhNSSJwRW+Ip939i473AMR+pJJlcToSUtAGjYAHBt8YIgt
V1EyOv8eGqxzK94z7WRSS3U3n3oEeh23JjEndNC4FEaDZV4T7GOZWAr7/eKa/oBo
89iWd1aeW2ghjr+eYhox5dc8EhR08/5WvObXvmQ2JZ+4tbmtQUJIhUF2M9oi9toH
wM2l
-----END CERTIFICATE-----
