Certificate:
    Data:
        Version: 3 (0x2)
        Serial Number: 2 (0x2)
        Signature Algorithm: sha256WithRSAEncryption
        Issuer: C=US, ST=California, O=M2Crypto, CN=Heikki Toivonen
        Validity
            Not Before: Sep 15 22:29:11 2024 GMT
            Not After : Sep 13 22:29:11 2034 GMT
        Subject: C=US, ST=California, O=M2Crypto, CN=X509
        Subject Public Key Info:
            Public Key Algorithm: rsaEncryption
                RSA Public-Key: (2048 bit)
                Modulus:
                    00:8f:bd:3e:6e:2c:1b:11:3b:a9:31:8d:54:d9:c6:
                    e2:11:7a:c1:61:0d:da:88:2d:57:95:64:a1:54:de:
                    19:ff:1f:26:0c:3b:6c:11:44:60:af:27:04:0b:a0:
                    d0:3e:7d:50:41:dc:60:4a:df:a9:32:f1:f6:84:e3:
                    89:71:7d:5e:8b:87:c7:23:af:d9:05:b5:20:6c:29:
                    a7:69:2e:b1:81:64:4f:e2:84:2d:62:5f:1f:1e:0d:
                    fe:bb:47:60:8c:0c:f6:ae:f9:b4:24:47:c0:c6:5d:
                    41:45:3e:7d:c4:5a:57:41:dc:12:6c:9c:d6:44:48:
                    a3:e9:d4:d0:7d:bc:e9:d1:17:68:92:9c:cd:75:f9:
                    b7:32:f2:92:e9:27:45:61:d5:57:60:f0:ab:9e:7a:
                    78:34:01:c5:b8:58:7a:ad:3d:21:54:89:c1:69:75:
                    b6:aa:ad:76:14:13:6f:05:ad:93:f9:e0:9c:9a:c4:
                    83:bb:54:d9:4c:9d:8a:17:38:ac:f7:59:cb:ee:56:
                    d7:40:18:2e:e3:4a:63:cb:0a:6d:69:b3:67:a1:b5:
                    1d:6f:db:84:b2:b5:40:c4:7c:cd:d2:85:14:0c:63:
                    94:0c:71:a4:43:15:a8:b8:7f:86:19:ba:00:c1:e6:
                    a2:a7:c1:22:de:ff:a4:f6:d4:10:ea:67:78:7a:69:
                    10:7d
                Exponent: 65537 (0x10001)
        X509v3 extensions:
            X509v3 Basic Constraints: 
                CA:FALSE
            X509v3 Subject Key Identifier: 
                29:D5:69:D3:C7:40:E4:C7:EF:0F:A3:BE:4E:FF:71:83:7D:9E:51:D8
    Signature Algorithm: sha256WithRSAEncryption
    Signature Value:
        61:33:ef:1f:59:c8:6b:43:43:f0:54:19:8c:3b:67:4a:2c:ae:
        fd:2b:d7:36:b0:82:e3:d0:e2:e9:95:a6:9b:cb:e6:0a:e9:f3:
        21:51:e9:73:e1:e0:12:cc:f7:5e:4c:54:99:c1:2e:f6:cf:9f:
        14:80:c0:07:3c:2a:d7:fc:26:11:86:86:0f:19:9c:83:d6:91:
        26:ed:2c:db:b6:e8:a4:3d:fb:5a:9b:4a:37:e5:8d:dd:31:ad:
        1a:b6:6a:a6:97:ca:d3:f4:65:bc:f4:f7:ca:be:83:7a:c1:5b:
        4d:92:8b:5d:c2:6b:cb:7f:eb:0f:f1:ef:cc:b1:3b:d1:8f:17:
        63:35:2d:f4:db:aa:7a:31:ac:12:b9:c7:31:a7:3c:e5:70:6b:
        12:b7:be:ad:2d:2b:f3:24:19:30:70:2f:9a:b7:e2:87:8a:83:
        11:fc:f2:42:89:63:b2:c5:6b:0d:ca:66:d8:19:39:db:ab:9e:
        4d:a8:3f:7c:25:34:3d:f4:9b:74:7d:f9:26:31:fd:ff:ec:47:
        17:e8:41:e2:0c:9d:a8:ab:2b:0f:62:d0:21:7e:55:b2:9e:ed:
        43:08:63:f3:af:d4:7c:21:cc:07:da:52:a1:e9:e8:88:53:35:
        e6:50:0d:90:ab:c5:e4:2c:bd:b1:6b:80:fd:37:f9:80:79:9b:
        d5:a8:c3:cc
-----BEGIN CERTIFICATE-----
MIIDOjCCAiKgAwIBAgIBAjANBgkqhkiG9w0BAQsFADBPMQswCQYDVQQGEwJVUzET
MBEGA1UECAwKQ2FsaWZvcm5pYTERMA8GA1UECgwITTJDcnlwdG8xGDAWBgNVBAMM
D0hlaWtraSBUb2l2b25lbjAeFw0yNDA5MTUyMjI5MTFaFw0zNDA5MTMyMjI5MTFa
MEQxCzAJBgNVBAYTAlVTMRMwEQYDVQQIDApDYWxpZm9ybmlhMREwDwYDVQQKDAhN
MkNyeXB0bzENMAsGA1UEAwwEWDUwOTCCASIwDQYJKoZIhvcNAQEBBQADggEPADCC
AQoCggEBAI+9Pm4sGxE7qTGNVNnG4hF6wWEN2ogtV5VkoVTeGf8fJgw7bBFEYK8n
BAug0D59UEHcYErfqTLx9oTjiXF9XouHxyOv2QW1IGwpp2kusYFkT+KELWJfHx4N
/rtHYIwM9q75tCRHwMZdQUU+fcRaV0HcEmyc1kRIo+nU0H286dEXaJKczXX5tzLy
kuknRWHVV2Dwq556eDQBxbhYeq09IVSJwWl1tqqtdhQTbwWtk/ngnJrEg7tU2Uyd
ihc4rPdZy+5W10AYLuNKY8sKbWmzZ6G1HW/bhLK1QMR8zdKFFAxjlAxxpEMVqLh/
hhm6AMHmoqfBIt7/pPbUEOpneHppEH0CAwEAAaMsMCowCQYDVR0TBAIwADAdBgNV
HQ4EFgQUKdVp08dA5MfvD6O+Tv9xg32eUdgwDQYJKoZIhvcNAQELBQADggEBAGEz
7x9ZyGtDQ/BUGYw7Z0osrv0r1zawguPQ4umVppvL5grp8yFR6XPh4BLM915MVJnB
LvbPnxSAwAc8Ktf8JhGGhg8ZnIPWkSbtLNu26KQ9+1qbSjfljd0xrRq2aqaXytP0
Zbz098q+g3rBW02Si13Ca8t/6w/x78yxO9GPF2M1LfTbqnoxrBK5xzGnPOVwaxK3
vq0tK/MkGTBwL5q34oeKgxH88kKJY7LFaw3KZtgZOdurnk2oP3wlND30m3R9+SYx
/f/sRxfoQeIMnairKw9i0CF+VbKe7UMIY/Ov1HwhzAfaUqHp6IhTNeZQDZCrxeQs
vbFrgP03+YB5m9Wow8w=
-----END CERTIFICATE-----
-----BEGIN RSA PRIVATE KEY-----
MIIEogIBAAKCAQEAj70+biwbETupMY1U2cbiEXrBYQ3aiC1XlWShVN4Z/x8mDDts
EURgrycEC6DQPn1QQdxgSt+pMvH2hOOJcX1ei4fHI6/ZBbUgbCmnaS6xgWRP4oQt
Yl8fHg3+u0dgjAz2rvm0JEfAxl1BRT59xFpXQdwSbJzWREij6dTQfbzp0RdokpzN
dfm3MvKS6SdFYdVXYPCrnnp4NAHFuFh6rT0hVInBaXW2qq12FBNvBa2T+eCcmsSD
u1TZTJ2KFzis91nL7lbXQBgu40pjywptabNnobUdb9uEsrVAxHzN0oUUDGOUDHGk
QxWouH+GGboAweaip8Ei3v+k9tQQ6md4emkQfQIDAQABAoIBABBUiheO5T2uTzOf
q0iEAu0aIDGRlwaqTW1d8xem6sHZsm3oq7IZLaQt75S5SXoVV0fpl1BfsWO7VQGW
BD3OO4PorM7jdz7hwXQ9wJT/nA+863fVrSj5m5nDh0bpqLtglv9xbm5CGfxaCJoA
Vojh+/sx2y9XG4oYd/Q58byco4fV+xHwb6gmliSUpFlII7G6LZ6j17pz8G4nWlb+
A+6mD9F/COrqqMS8O/U+Yu8olnK0MGCsggIqKppBmtGSJ2gPmiy69VosDLhDEvnR
VCEGFBHbkjUFZVxhiRWveUX743JCbCV589VxVnCuNOWptKhTQ2Q2c02KlWsaTH8X
kpUj03UCgYEAwNfamOQjQWj4m3vJbe6Iaq/Sx9H1q/SHi8WdKxaO2HUMY+zqLJCR
PLCrgHViE1YlkpbhlAyZ076VHBx4cncI6EwNdaweIGTZ32/6sDQuB8Io7VtCRZM1
27M1W8J9XILnBJN+fJFAcUmphgAYYN6ZnEb0HhfhYj2Axaxt6WDr32sCgYEAvtB4
jJdmOc8Pm2BsB+lISz/v1tCq4thw2I3IvtyUmK2m1s0AxXpzHnwddwUqbb39BCP4
HYOb5vOOnDHjx9zlY+ROya754ICfyN9DSqhc0q2l7TKgzC3IB2EYibO1MiDRzax5
ZXF/WzCmeboHCqrKVew0PWfqzZImjaHvANiy0bcCgYAXxQNuwQAPee7ay2FCqZoq
/E0Q0DJl5ZgnhE4hF4C38YV7c6JRp+gfAO/Cv7U9COtMrEhVxU/Yp68dbezyvvVc
HLO0A2kbORMZ1WWi/muGDUqaJxt+E+0ZjXdQPiLRmlj7WWrH0+eLjzbUC4L1vbpV
ZvGEHBFt2ILc2qoZkBbCzQKBgB4lbYY4vSvQ7NRNbYPqdUN+PHQhz327WEi+TcLp
sohUlxFEniSU7e8ZCMavCD8CTyECVcbD7jOUsyk2MJh467zWayQuAshXSedAbq8y
3kdiq95Hq2PWr82Kp4fJ3oym5r6pyxwdzFMp4oNEwqwKw6DDipVQ/6Wuu2yQ8uOd
WNMNAoGAAPQopq0XIJCqKBZq9RfS/d5ceo7vZnQxEveToSJWSlaJ5cgt/PyrFaAn
wVUBntsaVReEoL3dyAtmnBIZpc+o/sAW4IyziSl7zuaBo9TymekPt+9xGnvftK9H
XBOoCANTGlZQENmkygfi9UgjffTk9enoBTrNptbDZHJFST9PUWI=
-----END RSA PRIVATE KEY-----
